	.section	__TEXT,__text,regular,pure_instructions
	.build_version macos, 12, 0	sdk_version 12, 0
	.globl	_main                           ## -- Begin function main
	.p2align	4, 0x90
_main:                                  ## @main
Lfunc_begin0:
	.cfi_startproc
	.cfi_personality 155, ___gxx_personality_v0
	.cfi_lsda 16, Lexception0
## %bb.0:
	pushq	%rbp
	.cfi_def_cfa_offset 16
	.cfi_offset %rbp, -16
	movq	%rsp, %rbp
	.cfi_def_cfa_register %rbp
	subq	$64, %rsp
	movl	$0, -4(%rbp)
	leaq	-32(%rbp), %rdi
	callq	__ZNSt3__16vectorIiNS_9allocatorIiEEEC1Ev
	movl	$0, -36(%rbp)
LBB0_1:                                 ## =>This Inner Loop Header: Depth=1
	cmpl	$9, -36(%rbp)
	jge	LBB0_6
## %bb.2:                               ##   in Loop: Header=BB0_1 Depth=1
Ltmp0:
	leaq	-32(%rbp), %rdi
	leaq	-36(%rbp), %rsi
	callq	__ZNSt3__16vectorIiNS_9allocatorIiEEE9push_backERKi
Ltmp1:
	jmp	LBB0_3
LBB0_3:                                 ##   in Loop: Header=BB0_1 Depth=1
	jmp	LBB0_4
LBB0_4:                                 ##   in Loop: Header=BB0_1 Depth=1
	movl	-36(%rbp), %eax
	addl	$1, %eax
	movl	%eax, -36(%rbp)
	jmp	LBB0_1
LBB0_5:
Ltmp2:
	movq	%rax, %rcx
	movl	%edx, %eax
	movq	%rcx, -48(%rbp)
	movl	%eax, -52(%rbp)
Ltmp3:
	leaq	-32(%rbp), %rdi
	callq	__ZNSt3__16vectorIiNS_9allocatorIiEEED1Ev
Ltmp4:
	jmp	LBB0_7
LBB0_6:
	leaq	-32(%rbp), %rdi
	callq	__ZNSt3__16vectorIiNS_9allocatorIiEEED1Ev
	movl	-4(%rbp), %eax
	addq	$64, %rsp
	popq	%rbp
	retq
LBB0_7:
	jmp	LBB0_8
LBB0_8:
	movq	-48(%rbp), %rdi
	callq	__Unwind_Resume
LBB0_9:
Ltmp5:
	movq	%rax, %rdi
	callq	___clang_call_terminate
Lfunc_end0:
	.cfi_endproc
	.section	__TEXT,__gcc_except_tab
	.p2align	2
GCC_except_table0:
Lexception0:
	.byte	255                             ## @LPStart Encoding = omit
	.byte	155                             ## @TType Encoding = indirect pcrel sdata4
	.uleb128 Lttbase0-Lttbaseref0
Lttbaseref0:
	.byte	1                               ## Call site Encoding = uleb128
	.uleb128 Lcst_end0-Lcst_begin0
Lcst_begin0:
	.uleb128 Lfunc_begin0-Lfunc_begin0      ## >> Call Site 1 <<
	.uleb128 Ltmp0-Lfunc_begin0             ##   Call between Lfunc_begin0 and Ltmp0
	.byte	0                               ##     has no landing pad
	.byte	0                               ##   On action: cleanup
	.uleb128 Ltmp0-Lfunc_begin0             ## >> Call Site 2 <<
	.uleb128 Ltmp1-Ltmp0                    ##   Call between Ltmp0 and Ltmp1
	.uleb128 Ltmp2-Lfunc_begin0             ##     jumps to Ltmp2
	.byte	0                               ##   On action: cleanup
	.uleb128 Ltmp3-Lfunc_begin0             ## >> Call Site 3 <<
	.uleb128 Ltmp4-Ltmp3                    ##   Call between Ltmp3 and Ltmp4
	.uleb128 Ltmp5-Lfunc_begin0             ##     jumps to Ltmp5
	.byte	1                               ##   On action: 1
	.uleb128 Ltmp4-Lfunc_begin0             ## >> Call Site 4 <<
	.uleb128 Lfunc_end0-Ltmp4               ##   Call between Ltmp4 and Lfunc_end0
	.byte	0                               ##     has no landing pad
	.byte	0                               ##   On action: cleanup
Lcst_end0:
	.byte	1                               ## >> Action Record 1 <<
                                        ##   Catch TypeInfo 1
	.byte	0                               ##   No further actions
	.p2align	2
                                        ## >> Catch TypeInfos <<
	.long	0                               ## TypeInfo 1
Lttbase0:
	.p2align	2
                                        ## -- End function
	.section	__TEXT,__text,regular,pure_instructions
	.p2align	4, 0x90                         ## -- Begin function _ZNSt3__16vectorIiNS_9allocatorIiEEEC1Ev
__ZNSt3__16vectorIiNS_9allocatorIiEEEC1Ev: ## @_ZNSt3__16vectorIiNS_9allocatorIiEEEC1Ev
	.cfi_startproc
## %bb.0:
	pushq	%rbp
	.cfi_def_cfa_offset 16
	.cfi_offset %rbp, -16
	movq	%rsp, %rbp
	.cfi_def_cfa_register %rbp
	subq	$16, %rsp
	movq	%rdi, -8(%rbp)
	movq	-8(%rbp), %rdi
	callq	__ZNSt3__16vectorIiNS_9allocatorIiEEEC2Ev
	addq	$16, %rsp
	popq	%rbp
	retq
	.cfi_endproc
                                        ## -- End function
	.p2align	4, 0x90                         ## -- Begin function _ZNSt3__16vectorIiNS_9allocatorIiEEE9push_backERKi
__ZNSt3__16vectorIiNS_9allocatorIiEEE9push_backERKi: ## @_ZNSt3__16vectorIiNS_9allocatorIiEEE9push_backERKi
	.cfi_startproc
## %bb.0:
	pushq	%rbp
	.cfi_def_cfa_offset 16
	.cfi_offset %rbp, -16
	movq	%rsp, %rbp
	.cfi_def_cfa_register %rbp
	subq	$32, %rsp
	movq	%rdi, -8(%rbp)
	movq	%rsi, -16(%rbp)
	movq	-8(%rbp), %rdi
	movq	%rdi, -32(%rbp)                 ## 8-byte Spill
	movq	8(%rdi), %rax
	movq	%rax, -24(%rbp)                 ## 8-byte Spill
	callq	__ZNSt3__113__vector_baseIiNS_9allocatorIiEEE9__end_capEv
	movq	%rax, %rcx
	movq	-24(%rbp), %rax                 ## 8-byte Reload
	cmpq	(%rcx), %rax
	je	LBB2_2
## %bb.1:
	movq	-32(%rbp), %rdi                 ## 8-byte Reload
	movq	-16(%rbp), %rsi
	callq	__ZNSt3__16vectorIiNS_9allocatorIiEEE22__construct_one_at_endIJRKiEEEvDpOT_
	jmp	LBB2_3
LBB2_2:
	movq	-32(%rbp), %rdi                 ## 8-byte Reload
	movq	-16(%rbp), %rsi
	callq	__ZNSt3__16vectorIiNS_9allocatorIiEEE21__push_back_slow_pathIKiEEvRT_
LBB2_3:
	addq	$32, %rsp
	popq	%rbp
	retq
	.cfi_endproc
                                        ## -- End function
	.p2align	4, 0x90                         ## -- Begin function _ZNSt3__16vectorIiNS_9allocatorIiEEED1Ev
__ZNSt3__16vectorIiNS_9allocatorIiEEED1Ev: ## @_ZNSt3__16vectorIiNS_9allocatorIiEEED1Ev
	.cfi_startproc
## %bb.0:
	pushq	%rbp
	.cfi_def_cfa_offset 16
	.cfi_offset %rbp, -16
	movq	%rsp, %rbp
	.cfi_def_cfa_register %rbp
	subq	$16, %rsp
	movq	%rdi, -8(%rbp)
	movq	-8(%rbp), %rdi
	callq	__ZNSt3__16vectorIiNS_9allocatorIiEEED2Ev
	addq	$16, %rsp
	popq	%rbp
	retq
	.cfi_endproc
                                        ## -- End function
	.private_extern	___clang_call_terminate ## -- Begin function __clang_call_terminate
	.globl	___clang_call_terminate
	.weak_definition	___clang_call_terminate
	.p2align	4, 0x90
___clang_call_terminate:                ## @__clang_call_terminate
## %bb.0:
	pushq	%rax
	callq	___cxa_begin_catch
	callq	__ZSt9terminatev
                                        ## -- End function
	.p2align	4, 0x90                         ## -- Begin function _ZNSt3__16vectorIiNS_9allocatorIiEEEC2Ev
__ZNSt3__16vectorIiNS_9allocatorIiEEEC2Ev: ## @_ZNSt3__16vectorIiNS_9allocatorIiEEEC2Ev
	.cfi_startproc
## %bb.0:
	pushq	%rbp
	.cfi_def_cfa_offset 16
	.cfi_offset %rbp, -16
	movq	%rsp, %rbp
	.cfi_def_cfa_register %rbp
	subq	$16, %rsp
	movq	%rdi, -8(%rbp)
	movq	-8(%rbp), %rdi
	callq	__ZNSt3__113__vector_baseIiNS_9allocatorIiEEEC2Ev
	addq	$16, %rsp
	popq	%rbp
	retq
	.cfi_endproc
                                        ## -- End function
	.p2align	4, 0x90                         ## -- Begin function _ZNSt3__113__vector_baseIiNS_9allocatorIiEEEC2Ev
__ZNSt3__113__vector_baseIiNS_9allocatorIiEEEC2Ev: ## @_ZNSt3__113__vector_baseIiNS_9allocatorIiEEEC2Ev
	.cfi_startproc
## %bb.0:
	pushq	%rbp
	.cfi_def_cfa_offset 16
	.cfi_offset %rbp, -16
	movq	%rsp, %rbp
	.cfi_def_cfa_register %rbp
	subq	$64, %rsp
	movq	%rdi, -8(%rbp)
	movq	-8(%rbp), %rdi
	movq	%rdi, -56(%rbp)                 ## 8-byte Spill
	callq	__ZNSt3__120__vector_base_commonILb1EEC2Ev
	callq	__ZNSt3__1L15__get_nullptr_tEv
	movq	%rax, -16(%rbp)
	leaq	-16(%rbp), %rdi
	callq	__ZNKSt3__19nullptr_tcvPT_IiEEv
	movq	%rax, %rcx
	movq	-56(%rbp), %rax                 ## 8-byte Reload
	movq	%rcx, (%rax)
	callq	__ZNSt3__1L15__get_nullptr_tEv
	movq	%rax, -24(%rbp)
	leaq	-24(%rbp), %rdi
	callq	__ZNKSt3__19nullptr_tcvPT_IiEEv
	movq	%rax, %rcx
	movq	-56(%rbp), %rax                 ## 8-byte Reload
	movq	%rcx, 8(%rax)
	addq	$16, %rax
	movq	%rax, -48(%rbp)                 ## 8-byte Spill
	callq	__ZNSt3__1L15__get_nullptr_tEv
	movq	-48(%rbp), %rdi                 ## 8-byte Reload
	movq	%rax, -32(%rbp)
	leaq	-32(%rbp), %rsi
	leaq	-40(%rbp), %rdx
	callq	__ZNSt3__117__compressed_pairIPiNS_9allocatorIiEEEC1INS_9nullptr_tENS_18__default_init_tagEEEOT_OT0_
	addq	$64, %rsp
	popq	%rbp
	retq
	.cfi_endproc
                                        ## -- End function
	.p2align	4, 0x90                         ## -- Begin function _ZNSt3__120__vector_base_commonILb1EEC2Ev
__ZNSt3__120__vector_base_commonILb1EEC2Ev: ## @_ZNSt3__120__vector_base_commonILb1EEC2Ev
	.cfi_startproc
## %bb.0:
	pushq	%rbp
	.cfi_def_cfa_offset 16
	.cfi_offset %rbp, -16
	movq	%rsp, %rbp
	.cfi_def_cfa_register %rbp
	movq	%rdi, -8(%rbp)
	popq	%rbp
	retq
	.cfi_endproc
                                        ## -- End function
	.p2align	4, 0x90                         ## -- Begin function _ZNSt3__1L15__get_nullptr_tEv
__ZNSt3__1L15__get_nullptr_tEv:         ## @_ZNSt3__1L15__get_nullptr_tEv
	.cfi_startproc
## %bb.0:
	pushq	%rbp
	.cfi_def_cfa_offset 16
	.cfi_offset %rbp, -16
	movq	%rsp, %rbp
	.cfi_def_cfa_register %rbp
	subq	$16, %rsp
	leaq	-8(%rbp), %rdi
	movq	$-1, %rsi
	callq	__ZNSt3__19nullptr_tC1EMNS0_5__natEi
	movq	-8(%rbp), %rax
	addq	$16, %rsp
	popq	%rbp
	retq
	.cfi_endproc
                                        ## -- End function
	.p2align	4, 0x90                         ## -- Begin function _ZNKSt3__19nullptr_tcvPT_IiEEv
__ZNKSt3__19nullptr_tcvPT_IiEEv:        ## @_ZNKSt3__19nullptr_tcvPT_IiEEv
	.cfi_startproc
## %bb.0:
	pushq	%rbp
	.cfi_def_cfa_offset 16
	.cfi_offset %rbp, -16
	movq	%rsp, %rbp
	.cfi_def_cfa_register %rbp
	movq	%rdi, -8(%rbp)
	xorl	%eax, %eax
                                        ## kill: def $rax killed $eax
	popq	%rbp
	retq
	.cfi_endproc
                                        ## -- End function
	.p2align	4, 0x90                         ## -- Begin function _ZNSt3__117__compressed_pairIPiNS_9allocatorIiEEEC1INS_9nullptr_tENS_18__default_init_tagEEEOT_OT0_
__ZNSt3__117__compressed_pairIPiNS_9allocatorIiEEEC1INS_9nullptr_tENS_18__default_init_tagEEEOT_OT0_: ## @_ZNSt3__117__compressed_pairIPiNS_9allocatorIiEEEC1INS_9nullptr_tENS_18__default_init_tagEEEOT_OT0_
	.cfi_startproc
## %bb.0:
	pushq	%rbp
	.cfi_def_cfa_offset 16
	.cfi_offset %rbp, -16
	movq	%rsp, %rbp
	.cfi_def_cfa_register %rbp
	subq	$32, %rsp
	movq	%rdi, -8(%rbp)
	movq	%rsi, -16(%rbp)
	movq	%rdx, -24(%rbp)
	movq	-8(%rbp), %rdi
	movq	-16(%rbp), %rsi
	movq	-24(%rbp), %rdx
	callq	__ZNSt3__117__compressed_pairIPiNS_9allocatorIiEEEC2INS_9nullptr_tENS_18__default_init_tagEEEOT_OT0_
	addq	$32, %rsp
	popq	%rbp
	retq
	.cfi_endproc
                                        ## -- End function
	.p2align	4, 0x90                         ## -- Begin function _ZNSt3__19nullptr_tC1EMNS0_5__natEi
__ZNSt3__19nullptr_tC1EMNS0_5__natEi:   ## @_ZNSt3__19nullptr_tC1EMNS0_5__natEi
	.cfi_startproc
## %bb.0:
	pushq	%rbp
	.cfi_def_cfa_offset 16
	.cfi_offset %rbp, -16
	movq	%rsp, %rbp
	.cfi_def_cfa_register %rbp
	subq	$16, %rsp
	movq	%rdi, -8(%rbp)
	movq	%rsi, -16(%rbp)
	movq	-8(%rbp), %rdi
	movq	-16(%rbp), %rsi
	callq	__ZNSt3__19nullptr_tC2EMNS0_5__natEi
	addq	$16, %rsp
	popq	%rbp
	retq
	.cfi_endproc
                                        ## -- End function
	.p2align	4, 0x90                         ## -- Begin function _ZNSt3__19nullptr_tC2EMNS0_5__natEi
__ZNSt3__19nullptr_tC2EMNS0_5__natEi:   ## @_ZNSt3__19nullptr_tC2EMNS0_5__natEi
	.cfi_startproc
## %bb.0:
	pushq	%rbp
	.cfi_def_cfa_offset 16
	.cfi_offset %rbp, -16
	movq	%rsp, %rbp
	.cfi_def_cfa_register %rbp
	movq	%rdi, -8(%rbp)
	movq	%rsi, -16(%rbp)
	movq	-8(%rbp), %rax
	movq	$0, (%rax)
	popq	%rbp
	retq
	.cfi_endproc
                                        ## -- End function
	.p2align	4, 0x90                         ## -- Begin function _ZNSt3__117__compressed_pairIPiNS_9allocatorIiEEEC2INS_9nullptr_tENS_18__default_init_tagEEEOT_OT0_
__ZNSt3__117__compressed_pairIPiNS_9allocatorIiEEEC2INS_9nullptr_tENS_18__default_init_tagEEEOT_OT0_: ## @_ZNSt3__117__compressed_pairIPiNS_9allocatorIiEEEC2INS_9nullptr_tENS_18__default_init_tagEEEOT_OT0_
	.cfi_startproc
## %bb.0:
	pushq	%rbp
	.cfi_def_cfa_offset 16
	.cfi_offset %rbp, -16
	movq	%rsp, %rbp
	.cfi_def_cfa_register %rbp
	subq	$64, %rsp
	movq	%rdi, -8(%rbp)
	movq	%rsi, -16(%rbp)
	movq	%rdx, -24(%rbp)
	movq	-8(%rbp), %rax
	movq	%rax, -48(%rbp)                 ## 8-byte Spill
	movq	%rax, -56(%rbp)                 ## 8-byte Spill
	movq	-16(%rbp), %rdi
	callq	__ZNSt3__1L7forwardINS_9nullptr_tEEEOT_RNS_16remove_referenceIS2_E4typeE
	movq	-56(%rbp), %rdi                 ## 8-byte Reload
	movq	%rax, %rsi
	callq	__ZNSt3__122__compressed_pair_elemIPiLi0ELb0EEC2INS_9nullptr_tEvEEOT_
	movq	-48(%rbp), %rax                 ## 8-byte Reload
	movq	%rax, -40(%rbp)                 ## 8-byte Spill
	movq	-24(%rbp), %rdi
	callq	__ZNSt3__1L7forwardINS_18__default_init_tagEEEOT_RNS_16remove_referenceIS2_E4typeE
	movq	-40(%rbp), %rdi                 ## 8-byte Reload
	callq	__ZNSt3__122__compressed_pair_elemINS_9allocatorIiEELi1ELb1EEC2ENS_18__default_init_tagE
	addq	$64, %rsp
	popq	%rbp
	retq
	.cfi_endproc
                                        ## -- End function
	.p2align	4, 0x90                         ## -- Begin function _ZNSt3__1L7forwardINS_9nullptr_tEEEOT_RNS_16remove_referenceIS2_E4typeE
__ZNSt3__1L7forwardINS_9nullptr_tEEEOT_RNS_16remove_referenceIS2_E4typeE: ## @_ZNSt3__1L7forwardINS_9nullptr_tEEEOT_RNS_16remove_referenceIS2_E4typeE
	.cfi_startproc
## %bb.0:
	pushq	%rbp
	.cfi_def_cfa_offset 16
	.cfi_offset %rbp, -16
	movq	%rsp, %rbp
	.cfi_def_cfa_register %rbp
	movq	%rdi, -8(%rbp)
	movq	-8(%rbp), %rax
	popq	%rbp
	retq
	.cfi_endproc
                                        ## -- End function
	.p2align	4, 0x90                         ## -- Begin function _ZNSt3__122__compressed_pair_elemIPiLi0ELb0EEC2INS_9nullptr_tEvEEOT_
__ZNSt3__122__compressed_pair_elemIPiLi0ELb0EEC2INS_9nullptr_tEvEEOT_: ## @_ZNSt3__122__compressed_pair_elemIPiLi0ELb0EEC2INS_9nullptr_tEvEEOT_
	.cfi_startproc
## %bb.0:
	pushq	%rbp
	.cfi_def_cfa_offset 16
	.cfi_offset %rbp, -16
	movq	%rsp, %rbp
	.cfi_def_cfa_register %rbp
	subq	$32, %rsp
	movq	%rdi, -8(%rbp)
	movq	%rsi, -16(%rbp)
	movq	-8(%rbp), %rax
	movq	%rax, -24(%rbp)                 ## 8-byte Spill
	movq	-16(%rbp), %rdi
	callq	__ZNSt3__1L7forwardINS_9nullptr_tEEEOT_RNS_16remove_referenceIS2_E4typeE
	movq	%rax, %rdi
	callq	__ZNKSt3__19nullptr_tcvPT_IiEEv
	movq	%rax, %rcx
	movq	-24(%rbp), %rax                 ## 8-byte Reload
	movq	%rcx, (%rax)
	addq	$32, %rsp
	popq	%rbp
	retq
	.cfi_endproc
                                        ## -- End function
	.p2align	4, 0x90                         ## -- Begin function _ZNSt3__1L7forwardINS_18__default_init_tagEEEOT_RNS_16remove_referenceIS2_E4typeE
__ZNSt3__1L7forwardINS_18__default_init_tagEEEOT_RNS_16remove_referenceIS2_E4typeE: ## @_ZNSt3__1L7forwardINS_18__default_init_tagEEEOT_RNS_16remove_referenceIS2_E4typeE
	.cfi_startproc
## %bb.0:
	pushq	%rbp
	.cfi_def_cfa_offset 16
	.cfi_offset %rbp, -16
	movq	%rsp, %rbp
	.cfi_def_cfa_register %rbp
	movq	%rdi, -8(%rbp)
	movq	-8(%rbp), %rax
	popq	%rbp
	retq
	.cfi_endproc
                                        ## -- End function
	.p2align	4, 0x90                         ## -- Begin function _ZNSt3__122__compressed_pair_elemINS_9allocatorIiEELi1ELb1EEC2ENS_18__default_init_tagE
__ZNSt3__122__compressed_pair_elemINS_9allocatorIiEELi1ELb1EEC2ENS_18__default_init_tagE: ## @_ZNSt3__122__compressed_pair_elemINS_9allocatorIiEELi1ELb1EEC2ENS_18__default_init_tagE
	.cfi_startproc
## %bb.0:
	pushq	%rbp
	.cfi_def_cfa_offset 16
	.cfi_offset %rbp, -16
	movq	%rsp, %rbp
	.cfi_def_cfa_register %rbp
	subq	$16, %rsp
	movq	%rdi, -16(%rbp)
	movq	-16(%rbp), %rdi
	callq	__ZNSt3__19allocatorIiEC2Ev
	addq	$16, %rsp
	popq	%rbp
	retq
	.cfi_endproc
                                        ## -- End function
	.p2align	4, 0x90                         ## -- Begin function _ZNSt3__19allocatorIiEC2Ev
__ZNSt3__19allocatorIiEC2Ev:            ## @_ZNSt3__19allocatorIiEC2Ev
	.cfi_startproc
## %bb.0:
	pushq	%rbp
	.cfi_def_cfa_offset 16
	.cfi_offset %rbp, -16
	movq	%rsp, %rbp
	.cfi_def_cfa_register %rbp
	subq	$16, %rsp
	movq	%rdi, -8(%rbp)
	movq	-8(%rbp), %rdi
	callq	__ZNSt3__116__non_trivial_ifILb1ENS_9allocatorIiEEEC2Ev
	addq	$16, %rsp
	popq	%rbp
	retq
	.cfi_endproc
                                        ## -- End function
	.p2align	4, 0x90                         ## -- Begin function _ZNSt3__116__non_trivial_ifILb1ENS_9allocatorIiEEEC2Ev
__ZNSt3__116__non_trivial_ifILb1ENS_9allocatorIiEEEC2Ev: ## @_ZNSt3__116__non_trivial_ifILb1ENS_9allocatorIiEEEC2Ev
	.cfi_startproc
## %bb.0:
	pushq	%rbp
	.cfi_def_cfa_offset 16
	.cfi_offset %rbp, -16
	movq	%rsp, %rbp
	.cfi_def_cfa_register %rbp
	movq	%rdi, -8(%rbp)
	popq	%rbp
	retq
	.cfi_endproc
                                        ## -- End function
	.p2align	4, 0x90                         ## -- Begin function _ZNSt3__16vectorIiNS_9allocatorIiEEED2Ev
__ZNSt3__16vectorIiNS_9allocatorIiEEED2Ev: ## @_ZNSt3__16vectorIiNS_9allocatorIiEEED2Ev
	.cfi_startproc
## %bb.0:
	pushq	%rbp
	.cfi_def_cfa_offset 16
	.cfi_offset %rbp, -16
	movq	%rsp, %rbp
	.cfi_def_cfa_register %rbp
	subq	$16, %rsp
	movq	%rdi, -8(%rbp)
	movq	-8(%rbp), %rdi
	movq	%rdi, -16(%rbp)                 ## 8-byte Spill
	callq	__ZNKSt3__16vectorIiNS_9allocatorIiEEE17__annotate_deleteEv
	movq	-16(%rbp), %rdi                 ## 8-byte Reload
	callq	__ZNSt3__113__vector_baseIiNS_9allocatorIiEEED2Ev
	addq	$16, %rsp
	popq	%rbp
	retq
	.cfi_endproc
                                        ## -- End function
	.p2align	4, 0x90                         ## -- Begin function _ZNKSt3__16vectorIiNS_9allocatorIiEEE17__annotate_deleteEv
__ZNKSt3__16vectorIiNS_9allocatorIiEEE17__annotate_deleteEv: ## @_ZNKSt3__16vectorIiNS_9allocatorIiEEE17__annotate_deleteEv
	.cfi_startproc
## %bb.0:
	pushq	%rbp
	.cfi_def_cfa_offset 16
	.cfi_offset %rbp, -16
	movq	%rsp, %rbp
	.cfi_def_cfa_register %rbp
	subq	$64, %rsp
	movq	%rdi, -8(%rbp)
	movq	-8(%rbp), %rdi
	movq	%rdi, -40(%rbp)                 ## 8-byte Spill
	callq	__ZNKSt3__16vectorIiNS_9allocatorIiEEE4dataEv
	movq	-40(%rbp), %rdi                 ## 8-byte Reload
	movq	%rax, -32(%rbp)                 ## 8-byte Spill
	callq	__ZNKSt3__16vectorIiNS_9allocatorIiEEE4dataEv
	movq	-40(%rbp), %rdi                 ## 8-byte Reload
	movq	%rax, -64(%rbp)                 ## 8-byte Spill
	callq	__ZNKSt3__16vectorIiNS_9allocatorIiEEE8capacityEv
	movq	-40(%rbp), %rdi                 ## 8-byte Reload
	movq	%rax, %rcx
	movq	-64(%rbp), %rax                 ## 8-byte Reload
	shlq	$2, %rcx
	addq	%rcx, %rax
	movq	%rax, -24(%rbp)                 ## 8-byte Spill
	callq	__ZNKSt3__16vectorIiNS_9allocatorIiEEE4dataEv
	movq	-40(%rbp), %rdi                 ## 8-byte Reload
	movq	%rax, -56(%rbp)                 ## 8-byte Spill
	callq	__ZNKSt3__16vectorIiNS_9allocatorIiEEE4sizeEv
	movq	-40(%rbp), %rdi                 ## 8-byte Reload
	movq	%rax, %rcx
	movq	-56(%rbp), %rax                 ## 8-byte Reload
	shlq	$2, %rcx
	addq	%rcx, %rax
	movq	%rax, -16(%rbp)                 ## 8-byte Spill
	callq	__ZNKSt3__16vectorIiNS_9allocatorIiEEE4dataEv
	movq	-40(%rbp), %rdi                 ## 8-byte Reload
	movq	%rax, -48(%rbp)                 ## 8-byte Spill
	callq	__ZNKSt3__16vectorIiNS_9allocatorIiEEE8capacityEv
	movq	-48(%rbp), %r8                  ## 8-byte Reload
	movq	-40(%rbp), %rdi                 ## 8-byte Reload
	movq	-32(%rbp), %rsi                 ## 8-byte Reload
	movq	-24(%rbp), %rdx                 ## 8-byte Reload
	movq	-16(%rbp), %rcx                 ## 8-byte Reload
	shlq	$2, %rax
	addq	%rax, %r8
	callq	__ZNKSt3__16vectorIiNS_9allocatorIiEEE31__annotate_contiguous_containerEPKvS5_S5_S5_
	addq	$64, %rsp
	popq	%rbp
	retq
	.cfi_endproc
                                        ## -- End function
	.globl	__ZNSt3__113__vector_baseIiNS_9allocatorIiEEED2Ev ## -- Begin function _ZNSt3__113__vector_baseIiNS_9allocatorIiEEED2Ev
	.weak_def_can_be_hidden	__ZNSt3__113__vector_baseIiNS_9allocatorIiEEED2Ev
	.p2align	4, 0x90
__ZNSt3__113__vector_baseIiNS_9allocatorIiEEED2Ev: ## @_ZNSt3__113__vector_baseIiNS_9allocatorIiEEED2Ev
	.cfi_startproc
## %bb.0:
	pushq	%rbp
	.cfi_def_cfa_offset 16
	.cfi_offset %rbp, -16
	movq	%rsp, %rbp
	.cfi_def_cfa_register %rbp
	subq	$48, %rsp
	movq	%rdi, -8(%rbp)
	movq	-8(%rbp), %rax
	movq	%rax, -32(%rbp)                 ## 8-byte Spill
	movq	(%rax), %rax
	movq	%rax, -24(%rbp)                 ## 8-byte Spill
	callq	__ZNSt3__1L15__get_nullptr_tEv
	movq	%rax, -16(%rbp)
	leaq	-16(%rbp), %rdi
	callq	__ZNKSt3__19nullptr_tcvPT_IiEEv
	movq	%rax, %rcx
	movq	-24(%rbp), %rax                 ## 8-byte Reload
	cmpq	%rcx, %rax
	je	LBB22_2
## %bb.1:
	movq	-32(%rbp), %rdi                 ## 8-byte Reload
	callq	__ZNSt3__113__vector_baseIiNS_9allocatorIiEEE5clearEv
	movq	-32(%rbp), %rdi                 ## 8-byte Reload
	callq	__ZNSt3__113__vector_baseIiNS_9allocatorIiEEE7__allocEv
	movq	-32(%rbp), %rdi                 ## 8-byte Reload
	movq	%rax, -48(%rbp)                 ## 8-byte Spill
	movq	(%rdi), %rax
	movq	%rax, -40(%rbp)                 ## 8-byte Spill
	callq	__ZNKSt3__113__vector_baseIiNS_9allocatorIiEEE8capacityEv
	movq	-48(%rbp), %rdi                 ## 8-byte Reload
	movq	-40(%rbp), %rsi                 ## 8-byte Reload
	movq	%rax, %rdx
	callq	__ZNSt3__116allocator_traitsINS_9allocatorIiEEE10deallocateERS2_Pim
LBB22_2:
	addq	$48, %rsp
	popq	%rbp
	retq
	.cfi_endproc
                                        ## -- End function
	.p2align	4, 0x90                         ## -- Begin function _ZNKSt3__16vectorIiNS_9allocatorIiEEE31__annotate_contiguous_containerEPKvS5_S5_S5_
__ZNKSt3__16vectorIiNS_9allocatorIiEEE31__annotate_contiguous_containerEPKvS5_S5_S5_: ## @_ZNKSt3__16vectorIiNS_9allocatorIiEEE31__annotate_contiguous_containerEPKvS5_S5_S5_
	.cfi_startproc
## %bb.0:
	pushq	%rbp
	.cfi_def_cfa_offset 16
	.cfi_offset %rbp, -16
	movq	%rsp, %rbp
	.cfi_def_cfa_register %rbp
	movq	%rdi, -8(%rbp)
	movq	%rsi, -16(%rbp)
	movq	%rdx, -24(%rbp)
	movq	%rcx, -32(%rbp)
	movq	%r8, -40(%rbp)
	popq	%rbp
	retq
	.cfi_endproc
                                        ## -- End function
	.p2align	4, 0x90                         ## -- Begin function _ZNKSt3__16vectorIiNS_9allocatorIiEEE4dataEv
__ZNKSt3__16vectorIiNS_9allocatorIiEEE4dataEv: ## @_ZNKSt3__16vectorIiNS_9allocatorIiEEE4dataEv
	.cfi_startproc
## %bb.0:
	pushq	%rbp
	.cfi_def_cfa_offset 16
	.cfi_offset %rbp, -16
	movq	%rsp, %rbp
	.cfi_def_cfa_register %rbp
	subq	$16, %rsp
	movq	%rdi, -8(%rbp)
	movq	-8(%rbp), %rax
	movq	(%rax), %rdi
	callq	__ZNSt3__1L12__to_addressIiEEPT_S2_
	addq	$16, %rsp
	popq	%rbp
	retq
	.cfi_endproc
                                        ## -- End function
	.p2align	4, 0x90                         ## -- Begin function _ZNKSt3__16vectorIiNS_9allocatorIiEEE8capacityEv
__ZNKSt3__16vectorIiNS_9allocatorIiEEE8capacityEv: ## @_ZNKSt3__16vectorIiNS_9allocatorIiEEE8capacityEv
	.cfi_startproc
## %bb.0:
	pushq	%rbp
	.cfi_def_cfa_offset 16
	.cfi_offset %rbp, -16
	movq	%rsp, %rbp
	.cfi_def_cfa_register %rbp
	subq	$16, %rsp
	movq	%rdi, -8(%rbp)
	movq	-8(%rbp), %rdi
	callq	__ZNKSt3__113__vector_baseIiNS_9allocatorIiEEE8capacityEv
	addq	$16, %rsp
	popq	%rbp
	retq
	.cfi_endproc
                                        ## -- End function
	.p2align	4, 0x90                         ## -- Begin function _ZNKSt3__16vectorIiNS_9allocatorIiEEE4sizeEv
__ZNKSt3__16vectorIiNS_9allocatorIiEEE4sizeEv: ## @_ZNKSt3__16vectorIiNS_9allocatorIiEEE4sizeEv
	.cfi_startproc
## %bb.0:
	pushq	%rbp
	.cfi_def_cfa_offset 16
	.cfi_offset %rbp, -16
	movq	%rsp, %rbp
	.cfi_def_cfa_register %rbp
	movq	%rdi, -8(%rbp)
	movq	-8(%rbp), %rcx
	movq	8(%rcx), %rax
	movq	(%rcx), %rcx
	subq	%rcx, %rax
	sarq	$2, %rax
	popq	%rbp
	retq
	.cfi_endproc
                                        ## -- End function
	.p2align	4, 0x90                         ## -- Begin function _ZNSt3__1L12__to_addressIiEEPT_S2_
__ZNSt3__1L12__to_addressIiEEPT_S2_:    ## @_ZNSt3__1L12__to_addressIiEEPT_S2_
	.cfi_startproc
## %bb.0:
	pushq	%rbp
	.cfi_def_cfa_offset 16
	.cfi_offset %rbp, -16
	movq	%rsp, %rbp
	.cfi_def_cfa_register %rbp
	movq	%rdi, -8(%rbp)
	movq	-8(%rbp), %rax
	popq	%rbp
	retq
	.cfi_endproc
                                        ## -- End function
	.p2align	4, 0x90                         ## -- Begin function _ZNKSt3__113__vector_baseIiNS_9allocatorIiEEE8capacityEv
__ZNKSt3__113__vector_baseIiNS_9allocatorIiEEE8capacityEv: ## @_ZNKSt3__113__vector_baseIiNS_9allocatorIiEEE8capacityEv
	.cfi_startproc
## %bb.0:
	pushq	%rbp
	.cfi_def_cfa_offset 16
	.cfi_offset %rbp, -16
	movq	%rsp, %rbp
	.cfi_def_cfa_register %rbp
	subq	$16, %rsp
	movq	%rdi, -8(%rbp)
	movq	-8(%rbp), %rdi
	movq	%rdi, -16(%rbp)                 ## 8-byte Spill
	callq	__ZNKSt3__113__vector_baseIiNS_9allocatorIiEEE9__end_capEv
	movq	-16(%rbp), %rcx                 ## 8-byte Reload
	movq	(%rax), %rax
	movq	(%rcx), %rcx
	subq	%rcx, %rax
	sarq	$2, %rax
	addq	$16, %rsp
	popq	%rbp
	retq
	.cfi_endproc
                                        ## -- End function
	.p2align	4, 0x90                         ## -- Begin function _ZNKSt3__113__vector_baseIiNS_9allocatorIiEEE9__end_capEv
__ZNKSt3__113__vector_baseIiNS_9allocatorIiEEE9__end_capEv: ## @_ZNKSt3__113__vector_baseIiNS_9allocatorIiEEE9__end_capEv
	.cfi_startproc
## %bb.0:
	pushq	%rbp
	.cfi_def_cfa_offset 16
	.cfi_offset %rbp, -16
	movq	%rsp, %rbp
	.cfi_def_cfa_register %rbp
	subq	$16, %rsp
	movq	%rdi, -8(%rbp)
	movq	-8(%rbp), %rdi
	addq	$16, %rdi
	callq	__ZNKSt3__117__compressed_pairIPiNS_9allocatorIiEEE5firstEv
	addq	$16, %rsp
	popq	%rbp
	retq
	.cfi_endproc
                                        ## -- End function
	.p2align	4, 0x90                         ## -- Begin function _ZNKSt3__117__compressed_pairIPiNS_9allocatorIiEEE5firstEv
__ZNKSt3__117__compressed_pairIPiNS_9allocatorIiEEE5firstEv: ## @_ZNKSt3__117__compressed_pairIPiNS_9allocatorIiEEE5firstEv
	.cfi_startproc
## %bb.0:
	pushq	%rbp
	.cfi_def_cfa_offset 16
	.cfi_offset %rbp, -16
	movq	%rsp, %rbp
	.cfi_def_cfa_register %rbp
	subq	$16, %rsp
	movq	%rdi, -8(%rbp)
	movq	-8(%rbp), %rdi
	callq	__ZNKSt3__122__compressed_pair_elemIPiLi0ELb0EE5__getEv
	addq	$16, %rsp
	popq	%rbp
	retq
	.cfi_endproc
                                        ## -- End function
	.p2align	4, 0x90                         ## -- Begin function _ZNKSt3__122__compressed_pair_elemIPiLi0ELb0EE5__getEv
__ZNKSt3__122__compressed_pair_elemIPiLi0ELb0EE5__getEv: ## @_ZNKSt3__122__compressed_pair_elemIPiLi0ELb0EE5__getEv
	.cfi_startproc
## %bb.0:
	pushq	%rbp
	.cfi_def_cfa_offset 16
	.cfi_offset %rbp, -16
	movq	%rsp, %rbp
	.cfi_def_cfa_register %rbp
	movq	%rdi, -8(%rbp)
	movq	-8(%rbp), %rax
	popq	%rbp
	retq
	.cfi_endproc
                                        ## -- End function
	.p2align	4, 0x90                         ## -- Begin function _ZNSt3__113__vector_baseIiNS_9allocatorIiEEE5clearEv
__ZNSt3__113__vector_baseIiNS_9allocatorIiEEE5clearEv: ## @_ZNSt3__113__vector_baseIiNS_9allocatorIiEEE5clearEv
	.cfi_startproc
## %bb.0:
	pushq	%rbp
	.cfi_def_cfa_offset 16
	.cfi_offset %rbp, -16
	movq	%rsp, %rbp
	.cfi_def_cfa_register %rbp
	subq	$16, %rsp
	movq	%rdi, -8(%rbp)
	movq	-8(%rbp), %rdi
	movq	(%rdi), %rsi
	callq	__ZNSt3__113__vector_baseIiNS_9allocatorIiEEE17__destruct_at_endEPi
	addq	$16, %rsp
	popq	%rbp
	retq
	.cfi_endproc
                                        ## -- End function
	.p2align	4, 0x90                         ## -- Begin function _ZNSt3__116allocator_traitsINS_9allocatorIiEEE10deallocateERS2_Pim
__ZNSt3__116allocator_traitsINS_9allocatorIiEEE10deallocateERS2_Pim: ## @_ZNSt3__116allocator_traitsINS_9allocatorIiEEE10deallocateERS2_Pim
	.cfi_startproc
## %bb.0:
	pushq	%rbp
	.cfi_def_cfa_offset 16
	.cfi_offset %rbp, -16
	movq	%rsp, %rbp
	.cfi_def_cfa_register %rbp
	subq	$32, %rsp
	movq	%rdi, -8(%rbp)
	movq	%rsi, -16(%rbp)
	movq	%rdx, -24(%rbp)
	movq	-8(%rbp), %rdi
	movq	-16(%rbp), %rsi
	movq	-24(%rbp), %rdx
	callq	__ZNSt3__19allocatorIiE10deallocateEPim
	addq	$32, %rsp
	popq	%rbp
	retq
	.cfi_endproc
                                        ## -- End function
	.p2align	4, 0x90                         ## -- Begin function _ZNSt3__113__vector_baseIiNS_9allocatorIiEEE7__allocEv
__ZNSt3__113__vector_baseIiNS_9allocatorIiEEE7__allocEv: ## @_ZNSt3__113__vector_baseIiNS_9allocatorIiEEE7__allocEv
	.cfi_startproc
## %bb.0:
	pushq	%rbp
	.cfi_def_cfa_offset 16
	.cfi_offset %rbp, -16
	movq	%rsp, %rbp
	.cfi_def_cfa_register %rbp
	subq	$16, %rsp
	movq	%rdi, -8(%rbp)
	movq	-8(%rbp), %rdi
	addq	$16, %rdi
	callq	__ZNSt3__117__compressed_pairIPiNS_9allocatorIiEEE6secondEv
	addq	$16, %rsp
	popq	%rbp
	retq
	.cfi_endproc
                                        ## -- End function
	.p2align	4, 0x90                         ## -- Begin function _ZNSt3__113__vector_baseIiNS_9allocatorIiEEE17__destruct_at_endEPi
__ZNSt3__113__vector_baseIiNS_9allocatorIiEEE17__destruct_at_endEPi: ## @_ZNSt3__113__vector_baseIiNS_9allocatorIiEEE17__destruct_at_endEPi
Lfunc_begin1:
	.cfi_startproc
	.cfi_personality 155, ___gxx_personality_v0
	.cfi_lsda 16, Lexception1
## %bb.0:
	pushq	%rbp
	.cfi_def_cfa_offset 16
	.cfi_offset %rbp, -16
	movq	%rsp, %rbp
	.cfi_def_cfa_register %rbp
	subq	$64, %rsp
	movq	%rdi, -8(%rbp)
	movq	%rsi, -16(%rbp)
	movq	-8(%rbp), %rax
	movq	%rax, -48(%rbp)                 ## 8-byte Spill
	movq	8(%rax), %rax
	movq	%rax, -24(%rbp)
LBB35_1:                                ## =>This Inner Loop Header: Depth=1
	movq	-16(%rbp), %rax
	cmpq	-24(%rbp), %rax
	je	LBB35_6
## %bb.2:                               ##   in Loop: Header=BB35_1 Depth=1
	movq	-48(%rbp), %rdi                 ## 8-byte Reload
	callq	__ZNSt3__113__vector_baseIiNS_9allocatorIiEEE7__allocEv
	movq	%rax, -56(%rbp)                 ## 8-byte Spill
	movq	-24(%rbp), %rdi
	addq	$-4, %rdi
	movq	%rdi, -24(%rbp)
	callq	__ZNSt3__1L12__to_addressIiEEPT_S2_
	movq	-56(%rbp), %rdi                 ## 8-byte Reload
	movq	%rax, %rsi
Ltmp6:
	callq	__ZNSt3__116allocator_traitsINS_9allocatorIiEEE7destroyIivEEvRS2_PT_
Ltmp7:
	jmp	LBB35_3
LBB35_3:                                ##   in Loop: Header=BB35_1 Depth=1
	jmp	LBB35_1
LBB35_4:
Ltmp8:
	movq	%rax, %rcx
	movl	%edx, %eax
	movq	%rcx, -32(%rbp)
	movl	%eax, -36(%rbp)
## %bb.5:
	movq	-32(%rbp), %rdi
	callq	___cxa_call_unexpected
LBB35_6:
	movq	-48(%rbp), %rax                 ## 8-byte Reload
	movq	-16(%rbp), %rcx
	movq	%rcx, 8(%rax)
	addq	$64, %rsp
	popq	%rbp
	retq
Lfunc_end1:
	.cfi_endproc
	.section	__TEXT,__gcc_except_tab
	.p2align	2
GCC_except_table35:
Lexception1:
	.byte	255                             ## @LPStart Encoding = omit
	.byte	155                             ## @TType Encoding = indirect pcrel sdata4
	.uleb128 Lttbase1-Lttbaseref1
Lttbaseref1:
	.byte	1                               ## Call site Encoding = uleb128
	.uleb128 Lcst_end1-Lcst_begin1
Lcst_begin1:
	.uleb128 Ltmp6-Lfunc_begin1             ## >> Call Site 1 <<
	.uleb128 Ltmp7-Ltmp6                    ##   Call between Ltmp6 and Ltmp7
	.uleb128 Ltmp8-Lfunc_begin1             ##     jumps to Ltmp8
	.byte	1                               ##   On action: 1
	.uleb128 Ltmp7-Lfunc_begin1             ## >> Call Site 2 <<
	.uleb128 Lfunc_end1-Ltmp7               ##   Call between Ltmp7 and Lfunc_end1
	.byte	0                               ##     has no landing pad
	.byte	0                               ##   On action: cleanup
Lcst_end1:
	.byte	127                             ## >> Action Record 1 <<
                                        ##   Filter TypeInfo -1
	.byte	0                               ##   No further actions
	.p2align	2
Lttbase1:
                                        ## >> Filter TypeInfos <<
	.byte	0
	.p2align	2
                                        ## -- End function
	.section	__TEXT,__text,regular,pure_instructions
	.p2align	4, 0x90                         ## -- Begin function _ZNSt3__116allocator_traitsINS_9allocatorIiEEE7destroyIivEEvRS2_PT_
__ZNSt3__116allocator_traitsINS_9allocatorIiEEE7destroyIivEEvRS2_PT_: ## @_ZNSt3__116allocator_traitsINS_9allocatorIiEEE7destroyIivEEvRS2_PT_
	.cfi_startproc
## %bb.0:
	pushq	%rbp
	.cfi_def_cfa_offset 16
	.cfi_offset %rbp, -16
	movq	%rsp, %rbp
	.cfi_def_cfa_register %rbp
	subq	$16, %rsp
	movq	%rdi, -8(%rbp)
	movq	%rsi, -16(%rbp)
	movq	-8(%rbp), %rdi
	movq	-16(%rbp), %rsi
	callq	__ZNSt3__19allocatorIiE7destroyEPi
	addq	$16, %rsp
	popq	%rbp
	retq
	.cfi_endproc
                                        ## -- End function
	.p2align	4, 0x90                         ## -- Begin function _ZNSt3__19allocatorIiE7destroyEPi
__ZNSt3__19allocatorIiE7destroyEPi:     ## @_ZNSt3__19allocatorIiE7destroyEPi
	.cfi_startproc
## %bb.0:
	pushq	%rbp
	.cfi_def_cfa_offset 16
	.cfi_offset %rbp, -16
	movq	%rsp, %rbp
	.cfi_def_cfa_register %rbp
	movq	%rdi, -8(%rbp)
	movq	%rsi, -16(%rbp)
	popq	%rbp
	retq
	.cfi_endproc
                                        ## -- End function
	.p2align	4, 0x90                         ## -- Begin function _ZNSt3__19allocatorIiE10deallocateEPim
__ZNSt3__19allocatorIiE10deallocateEPim: ## @_ZNSt3__19allocatorIiE10deallocateEPim
Lfunc_begin2:
	.cfi_startproc
	.cfi_personality 155, ___gxx_personality_v0
	.cfi_lsda 16, Lexception2
## %bb.0:
	pushq	%rbp
	.cfi_def_cfa_offset 16
	.cfi_offset %rbp, -16
	movq	%rsp, %rbp
	.cfi_def_cfa_register %rbp
	subq	$48, %rsp
	movq	%rdi, -8(%rbp)
	movq	%rsi, -16(%rbp)
	movq	%rdx, -24(%rbp)
	callq	__ZNSt3__130__libcpp_is_constant_evaluatedEv
	testb	$1, %al
	jne	LBB38_1
	jmp	LBB38_2
LBB38_1:
	movq	-16(%rbp), %rdi
	callq	__ZdlPv
	jmp	LBB38_6
LBB38_2:
	movq	-16(%rbp), %rdi
	movq	-24(%rbp), %rsi
	shlq	$2, %rsi
Ltmp9:
	movl	$4, %edx
	callq	__ZNSt3__1L19__libcpp_deallocateEPvmm
Ltmp10:
	jmp	LBB38_3
LBB38_3:
	jmp	LBB38_6
LBB38_4:
Ltmp11:
	movq	%rax, %rcx
	movl	%edx, %eax
	movq	%rcx, -32(%rbp)
	movl	%eax, -36(%rbp)
## %bb.5:
	movq	-32(%rbp), %rdi
	callq	___cxa_call_unexpected
LBB38_6:
	addq	$48, %rsp
	popq	%rbp
	retq
Lfunc_end2:
	.cfi_endproc
	.section	__TEXT,__gcc_except_tab
	.p2align	2
GCC_except_table38:
Lexception2:
	.byte	255                             ## @LPStart Encoding = omit
	.byte	155                             ## @TType Encoding = indirect pcrel sdata4
	.uleb128 Lttbase2-Lttbaseref2
Lttbaseref2:
	.byte	1                               ## Call site Encoding = uleb128
	.uleb128 Lcst_end2-Lcst_begin2
Lcst_begin2:
	.uleb128 Ltmp9-Lfunc_begin2             ## >> Call Site 1 <<
	.uleb128 Ltmp10-Ltmp9                   ##   Call between Ltmp9 and Ltmp10
	.uleb128 Ltmp11-Lfunc_begin2            ##     jumps to Ltmp11
	.byte	1                               ##   On action: 1
	.uleb128 Ltmp10-Lfunc_begin2            ## >> Call Site 2 <<
	.uleb128 Lfunc_end2-Ltmp10              ##   Call between Ltmp10 and Lfunc_end2
	.byte	0                               ##     has no landing pad
	.byte	0                               ##   On action: cleanup
Lcst_end2:
	.byte	127                             ## >> Action Record 1 <<
                                        ##   Filter TypeInfo -1
	.byte	0                               ##   No further actions
	.p2align	2
Lttbase2:
                                        ## >> Filter TypeInfos <<
	.byte	0
	.p2align	2
                                        ## -- End function
	.section	__TEXT,__text,regular,pure_instructions
	.globl	__ZNSt3__130__libcpp_is_constant_evaluatedEv ## -- Begin function _ZNSt3__130__libcpp_is_constant_evaluatedEv
	.weak_definition	__ZNSt3__130__libcpp_is_constant_evaluatedEv
	.p2align	4, 0x90
__ZNSt3__130__libcpp_is_constant_evaluatedEv: ## @_ZNSt3__130__libcpp_is_constant_evaluatedEv
	.cfi_startproc
## %bb.0:
	pushq	%rbp
	.cfi_def_cfa_offset 16
	.cfi_offset %rbp, -16
	movq	%rsp, %rbp
	.cfi_def_cfa_register %rbp
	xorl	%eax, %eax
                                        ## kill: def $al killed $al killed $eax
	andb	$1, %al
	movzbl	%al, %eax
	popq	%rbp
	retq
	.cfi_endproc
                                        ## -- End function
	.p2align	4, 0x90                         ## -- Begin function _ZNSt3__1L19__libcpp_deallocateEPvmm
__ZNSt3__1L19__libcpp_deallocateEPvmm:  ## @_ZNSt3__1L19__libcpp_deallocateEPvmm
	.cfi_startproc
## %bb.0:
	pushq	%rbp
	.cfi_def_cfa_offset 16
	.cfi_offset %rbp, -16
	movq	%rsp, %rbp
	.cfi_def_cfa_register %rbp
	subq	$32, %rsp
	movq	%rdi, -8(%rbp)
	movq	%rsi, -16(%rbp)
	movq	%rdx, -24(%rbp)
	movq	-8(%rbp), %rdi
	movq	-16(%rbp), %rsi
	callq	__ZNSt3__1L27__do_deallocate_handle_sizeIJEEEvPvmDpT_
	addq	$32, %rsp
	popq	%rbp
	retq
	.cfi_endproc
                                        ## -- End function
	.p2align	4, 0x90                         ## -- Begin function _ZNSt3__1L27__do_deallocate_handle_sizeIJEEEvPvmDpT_
__ZNSt3__1L27__do_deallocate_handle_sizeIJEEEvPvmDpT_: ## @_ZNSt3__1L27__do_deallocate_handle_sizeIJEEEvPvmDpT_
	.cfi_startproc
## %bb.0:
	pushq	%rbp
	.cfi_def_cfa_offset 16
	.cfi_offset %rbp, -16
	movq	%rsp, %rbp
	.cfi_def_cfa_register %rbp
	subq	$16, %rsp
	movq	%rdi, -8(%rbp)
	movq	%rsi, -16(%rbp)
	movq	-8(%rbp), %rdi
	callq	__ZNSt3__1L24__libcpp_operator_deleteIJPvEEEvDpT_
	addq	$16, %rsp
	popq	%rbp
	retq
	.cfi_endproc
                                        ## -- End function
	.p2align	4, 0x90                         ## -- Begin function _ZNSt3__1L24__libcpp_operator_deleteIJPvEEEvDpT_
__ZNSt3__1L24__libcpp_operator_deleteIJPvEEEvDpT_: ## @_ZNSt3__1L24__libcpp_operator_deleteIJPvEEEvDpT_
	.cfi_startproc
## %bb.0:
	pushq	%rbp
	.cfi_def_cfa_offset 16
	.cfi_offset %rbp, -16
	movq	%rsp, %rbp
	.cfi_def_cfa_register %rbp
	subq	$16, %rsp
	movq	%rdi, -8(%rbp)
	movq	-8(%rbp), %rdi
	callq	__ZdlPv
	addq	$16, %rsp
	popq	%rbp
	retq
	.cfi_endproc
                                        ## -- End function
	.p2align	4, 0x90                         ## -- Begin function _ZNSt3__117__compressed_pairIPiNS_9allocatorIiEEE6secondEv
__ZNSt3__117__compressed_pairIPiNS_9allocatorIiEEE6secondEv: ## @_ZNSt3__117__compressed_pairIPiNS_9allocatorIiEEE6secondEv
	.cfi_startproc
## %bb.0:
	pushq	%rbp
	.cfi_def_cfa_offset 16
	.cfi_offset %rbp, -16
	movq	%rsp, %rbp
	.cfi_def_cfa_register %rbp
	subq	$16, %rsp
	movq	%rdi, -8(%rbp)
	movq	-8(%rbp), %rdi
	callq	__ZNSt3__122__compressed_pair_elemINS_9allocatorIiEELi1ELb1EE5__getEv
	addq	$16, %rsp
	popq	%rbp
	retq
	.cfi_endproc
                                        ## -- End function
	.p2align	4, 0x90                         ## -- Begin function _ZNSt3__122__compressed_pair_elemINS_9allocatorIiEELi1ELb1EE5__getEv
__ZNSt3__122__compressed_pair_elemINS_9allocatorIiEELi1ELb1EE5__getEv: ## @_ZNSt3__122__compressed_pair_elemINS_9allocatorIiEELi1ELb1EE5__getEv
	.cfi_startproc
## %bb.0:
	pushq	%rbp
	.cfi_def_cfa_offset 16
	.cfi_offset %rbp, -16
	movq	%rsp, %rbp
	.cfi_def_cfa_register %rbp
	movq	%rdi, -8(%rbp)
	movq	-8(%rbp), %rax
	popq	%rbp
	retq
	.cfi_endproc
                                        ## -- End function
	.p2align	4, 0x90                         ## -- Begin function _ZNSt3__113__vector_baseIiNS_9allocatorIiEEE9__end_capEv
__ZNSt3__113__vector_baseIiNS_9allocatorIiEEE9__end_capEv: ## @_ZNSt3__113__vector_baseIiNS_9allocatorIiEEE9__end_capEv
	.cfi_startproc
## %bb.0:
	pushq	%rbp
	.cfi_def_cfa_offset 16
	.cfi_offset %rbp, -16
	movq	%rsp, %rbp
	.cfi_def_cfa_register %rbp
	subq	$16, %rsp
	movq	%rdi, -8(%rbp)
	movq	-8(%rbp), %rdi
	addq	$16, %rdi
	callq	__ZNSt3__117__compressed_pairIPiNS_9allocatorIiEEE5firstEv
	addq	$16, %rsp
	popq	%rbp
	retq
	.cfi_endproc
                                        ## -- End function
	.p2align	4, 0x90                         ## -- Begin function _ZNSt3__16vectorIiNS_9allocatorIiEEE22__construct_one_at_endIJRKiEEEvDpOT_
__ZNSt3__16vectorIiNS_9allocatorIiEEE22__construct_one_at_endIJRKiEEEvDpOT_: ## @_ZNSt3__16vectorIiNS_9allocatorIiEEE22__construct_one_at_endIJRKiEEEvDpOT_
Lfunc_begin3:
	.cfi_startproc
	.cfi_personality 155, ___gxx_personality_v0
	.cfi_lsda 16, Lexception3
## %bb.0:
	pushq	%rbp
	.cfi_def_cfa_offset 16
	.cfi_offset %rbp, -16
	movq	%rsp, %rbp
	.cfi_def_cfa_register %rbp
	subq	$80, %rsp
	movq	%rdi, -8(%rbp)
	movq	%rsi, -16(%rbp)
	movq	-8(%rbp), %rsi
	movq	%rsi, -80(%rbp)                 ## 8-byte Spill
	leaq	-40(%rbp), %rdi
	movl	$1, %edx
	callq	__ZNSt3__16vectorIiNS_9allocatorIiEEE21_ConstructTransactionC1ERS3_m
	movq	-80(%rbp), %rdi                 ## 8-byte Reload
	callq	__ZNSt3__113__vector_baseIiNS_9allocatorIiEEE7__allocEv
	movq	%rax, -72(%rbp)                 ## 8-byte Spill
	movq	-32(%rbp), %rdi
	callq	__ZNSt3__1L12__to_addressIiEEPT_S2_
	movq	%rax, -64(%rbp)                 ## 8-byte Spill
	movq	-16(%rbp), %rdi
	callq	__ZNSt3__1L7forwardIRKiEEOT_RNS_16remove_referenceIS3_E4typeE
	movq	-72(%rbp), %rdi                 ## 8-byte Reload
	movq	-64(%rbp), %rsi                 ## 8-byte Reload
	movq	%rax, %rdx
Ltmp12:
	callq	__ZNSt3__116allocator_traitsINS_9allocatorIiEEE9constructIiJRKiEvEEvRS2_PT_DpOT0_
Ltmp13:
	jmp	LBB46_1
LBB46_1:
	movq	-32(%rbp), %rax
	addq	$4, %rax
	movq	%rax, -32(%rbp)
	leaq	-40(%rbp), %rdi
	callq	__ZNSt3__16vectorIiNS_9allocatorIiEEE21_ConstructTransactionD1Ev
	addq	$80, %rsp
	popq	%rbp
	retq
LBB46_2:
Ltmp14:
	movq	%rax, %rcx
	movl	%edx, %eax
	movq	%rcx, -48(%rbp)
	movl	%eax, -52(%rbp)
Ltmp15:
	leaq	-40(%rbp), %rdi
	callq	__ZNSt3__16vectorIiNS_9allocatorIiEEE21_ConstructTransactionD1Ev
Ltmp16:
	jmp	LBB46_3
LBB46_3:
	jmp	LBB46_4
LBB46_4:
	movq	-48(%rbp), %rdi
	callq	__Unwind_Resume
LBB46_5:
Ltmp17:
	movq	%rax, %rdi
	callq	___clang_call_terminate
Lfunc_end3:
	.cfi_endproc
	.section	__TEXT,__gcc_except_tab
	.p2align	2
GCC_except_table46:
Lexception3:
	.byte	255                             ## @LPStart Encoding = omit
	.byte	155                             ## @TType Encoding = indirect pcrel sdata4
	.uleb128 Lttbase3-Lttbaseref3
Lttbaseref3:
	.byte	1                               ## Call site Encoding = uleb128
	.uleb128 Lcst_end3-Lcst_begin3
Lcst_begin3:
	.uleb128 Lfunc_begin3-Lfunc_begin3      ## >> Call Site 1 <<
	.uleb128 Ltmp12-Lfunc_begin3            ##   Call between Lfunc_begin3 and Ltmp12
	.byte	0                               ##     has no landing pad
	.byte	0                               ##   On action: cleanup
	.uleb128 Ltmp12-Lfunc_begin3            ## >> Call Site 2 <<
	.uleb128 Ltmp13-Ltmp12                  ##   Call between Ltmp12 and Ltmp13
	.uleb128 Ltmp14-Lfunc_begin3            ##     jumps to Ltmp14
	.byte	0                               ##   On action: cleanup
	.uleb128 Ltmp13-Lfunc_begin3            ## >> Call Site 3 <<
	.uleb128 Ltmp15-Ltmp13                  ##   Call between Ltmp13 and Ltmp15
	.byte	0                               ##     has no landing pad
	.byte	0                               ##   On action: cleanup
	.uleb128 Ltmp15-Lfunc_begin3            ## >> Call Site 4 <<
	.uleb128 Ltmp16-Ltmp15                  ##   Call between Ltmp15 and Ltmp16
	.uleb128 Ltmp17-Lfunc_begin3            ##     jumps to Ltmp17
	.byte	1                               ##   On action: 1
	.uleb128 Ltmp16-Lfunc_begin3            ## >> Call Site 5 <<
	.uleb128 Lfunc_end3-Ltmp16              ##   Call between Ltmp16 and Lfunc_end3
	.byte	0                               ##     has no landing pad
	.byte	0                               ##   On action: cleanup
Lcst_end3:
	.byte	1                               ## >> Action Record 1 <<
                                        ##   Catch TypeInfo 1
	.byte	0                               ##   No further actions
	.p2align	2
                                        ## >> Catch TypeInfos <<
	.long	0                               ## TypeInfo 1
Lttbase3:
	.p2align	2
                                        ## -- End function
	.section	__TEXT,__text,regular,pure_instructions
	.p2align	4, 0x90                         ## -- Begin function _ZNSt3__16vectorIiNS_9allocatorIiEEE21__push_back_slow_pathIKiEEvRT_
__ZNSt3__16vectorIiNS_9allocatorIiEEE21__push_back_slow_pathIKiEEvRT_: ## @_ZNSt3__16vectorIiNS_9allocatorIiEEE21__push_back_slow_pathIKiEEvRT_
Lfunc_begin4:
	.cfi_startproc
	.cfi_personality 155, ___gxx_personality_v0
	.cfi_lsda 16, Lexception4
## %bb.0:
	pushq	%rbp
	.cfi_def_cfa_offset 16
	.cfi_offset %rbp, -16
	movq	%rsp, %rbp
	.cfi_def_cfa_register %rbp
	subq	$112, %rsp
	movq	%rdi, -8(%rbp)
	movq	%rsi, -16(%rbp)
	movq	-8(%rbp), %rdi
	movq	%rdi, -112(%rbp)                ## 8-byte Spill
	callq	__ZNSt3__113__vector_baseIiNS_9allocatorIiEEE7__allocEv
	movq	-112(%rbp), %rdi                ## 8-byte Reload
	movq	%rax, -24(%rbp)
	callq	__ZNKSt3__16vectorIiNS_9allocatorIiEEE4sizeEv
	movq	-112(%rbp), %rdi                ## 8-byte Reload
	movq	%rax, %rsi
	addq	$1, %rsi
	callq	__ZNKSt3__16vectorIiNS_9allocatorIiEEE11__recommendEm
	movq	-112(%rbp), %rdi                ## 8-byte Reload
	movq	%rax, -104(%rbp)                ## 8-byte Spill
	callq	__ZNKSt3__16vectorIiNS_9allocatorIiEEE4sizeEv
	movq	-104(%rbp), %rsi                ## 8-byte Reload
	movq	%rax, %rdx
	movq	-24(%rbp), %rcx
	leaq	-64(%rbp), %rdi
	callq	__ZNSt3__114__split_bufferIiRNS_9allocatorIiEEEC1EmmS3_
	movq	-24(%rbp), %rax
	movq	%rax, -96(%rbp)                 ## 8-byte Spill
	movq	-48(%rbp), %rdi
	callq	__ZNSt3__1L12__to_addressIiEEPT_S2_
	movq	%rax, -88(%rbp)                 ## 8-byte Spill
	movq	-16(%rbp), %rdi
	callq	__ZNSt3__1L7forwardIKiEEOT_RNS_16remove_referenceIS2_E4typeE
	movq	-96(%rbp), %rdi                 ## 8-byte Reload
	movq	-88(%rbp), %rsi                 ## 8-byte Reload
	movq	%rax, %rdx
Ltmp18:
	callq	__ZNSt3__116allocator_traitsINS_9allocatorIiEEE9constructIiJKiEvEEvRS2_PT_DpOT0_
Ltmp19:
	jmp	LBB47_1
LBB47_1:
	movq	-112(%rbp), %rdi                ## 8-byte Reload
	movq	-48(%rbp), %rax
	addq	$4, %rax
	movq	%rax, -48(%rbp)
Ltmp20:
	leaq	-64(%rbp), %rsi
	callq	__ZNSt3__16vectorIiNS_9allocatorIiEEE26__swap_out_circular_bufferERNS_14__split_bufferIiRS2_EE
Ltmp21:
	jmp	LBB47_2
LBB47_2:
	leaq	-64(%rbp), %rdi
	callq	__ZNSt3__114__split_bufferIiRNS_9allocatorIiEEED1Ev
	addq	$112, %rsp
	popq	%rbp
	retq
LBB47_3:
Ltmp22:
	movq	%rax, %rcx
	movl	%edx, %eax
	movq	%rcx, -72(%rbp)
	movl	%eax, -76(%rbp)
Ltmp23:
	leaq	-64(%rbp), %rdi
	callq	__ZNSt3__114__split_bufferIiRNS_9allocatorIiEEED1Ev
Ltmp24:
	jmp	LBB47_4
LBB47_4:
	jmp	LBB47_5
LBB47_5:
	movq	-72(%rbp), %rdi
	callq	__Unwind_Resume
LBB47_6:
Ltmp25:
	movq	%rax, %rdi
	callq	___clang_call_terminate
Lfunc_end4:
	.cfi_endproc
	.section	__TEXT,__gcc_except_tab
	.p2align	2
GCC_except_table47:
Lexception4:
	.byte	255                             ## @LPStart Encoding = omit
	.byte	155                             ## @TType Encoding = indirect pcrel sdata4
	.uleb128 Lttbase4-Lttbaseref4
Lttbaseref4:
	.byte	1                               ## Call site Encoding = uleb128
	.uleb128 Lcst_end4-Lcst_begin4
Lcst_begin4:
	.uleb128 Lfunc_begin4-Lfunc_begin4      ## >> Call Site 1 <<
	.uleb128 Ltmp18-Lfunc_begin4            ##   Call between Lfunc_begin4 and Ltmp18
	.byte	0                               ##     has no landing pad
	.byte	0                               ##   On action: cleanup
	.uleb128 Ltmp18-Lfunc_begin4            ## >> Call Site 2 <<
	.uleb128 Ltmp21-Ltmp18                  ##   Call between Ltmp18 and Ltmp21
	.uleb128 Ltmp22-Lfunc_begin4            ##     jumps to Ltmp22
	.byte	0                               ##   On action: cleanup
	.uleb128 Ltmp21-Lfunc_begin4            ## >> Call Site 3 <<
	.uleb128 Ltmp23-Ltmp21                  ##   Call between Ltmp21 and Ltmp23
	.byte	0                               ##     has no landing pad
	.byte	0                               ##   On action: cleanup
	.uleb128 Ltmp23-Lfunc_begin4            ## >> Call Site 4 <<
	.uleb128 Ltmp24-Ltmp23                  ##   Call between Ltmp23 and Ltmp24
	.uleb128 Ltmp25-Lfunc_begin4            ##     jumps to Ltmp25
	.byte	1                               ##   On action: 1
	.uleb128 Ltmp24-Lfunc_begin4            ## >> Call Site 5 <<
	.uleb128 Lfunc_end4-Ltmp24              ##   Call between Ltmp24 and Lfunc_end4
	.byte	0                               ##     has no landing pad
	.byte	0                               ##   On action: cleanup
Lcst_end4:
	.byte	1                               ## >> Action Record 1 <<
                                        ##   Catch TypeInfo 1
	.byte	0                               ##   No further actions
	.p2align	2
                                        ## >> Catch TypeInfos <<
	.long	0                               ## TypeInfo 1
Lttbase4:
	.p2align	2
                                        ## -- End function
	.section	__TEXT,__text,regular,pure_instructions
	.p2align	4, 0x90                         ## -- Begin function _ZNSt3__117__compressed_pairIPiNS_9allocatorIiEEE5firstEv
__ZNSt3__117__compressed_pairIPiNS_9allocatorIiEEE5firstEv: ## @_ZNSt3__117__compressed_pairIPiNS_9allocatorIiEEE5firstEv
	.cfi_startproc
## %bb.0:
	pushq	%rbp
	.cfi_def_cfa_offset 16
	.cfi_offset %rbp, -16
	movq	%rsp, %rbp
	.cfi_def_cfa_register %rbp
	subq	$16, %rsp
	movq	%rdi, -8(%rbp)
	movq	-8(%rbp), %rdi
	callq	__ZNSt3__122__compressed_pair_elemIPiLi0ELb0EE5__getEv
	addq	$16, %rsp
	popq	%rbp
	retq
	.cfi_endproc
                                        ## -- End function
	.p2align	4, 0x90                         ## -- Begin function _ZNSt3__122__compressed_pair_elemIPiLi0ELb0EE5__getEv
__ZNSt3__122__compressed_pair_elemIPiLi0ELb0EE5__getEv: ## @_ZNSt3__122__compressed_pair_elemIPiLi0ELb0EE5__getEv
	.cfi_startproc
## %bb.0:
	pushq	%rbp
	.cfi_def_cfa_offset 16
	.cfi_offset %rbp, -16
	movq	%rsp, %rbp
	.cfi_def_cfa_register %rbp
	movq	%rdi, -8(%rbp)
	movq	-8(%rbp), %rax
	popq	%rbp
	retq
	.cfi_endproc
                                        ## -- End function
	.globl	__ZNSt3__16vectorIiNS_9allocatorIiEEE21_ConstructTransactionC1ERS3_m ## -- Begin function _ZNSt3__16vectorIiNS_9allocatorIiEEE21_ConstructTransactionC1ERS3_m
	.weak_def_can_be_hidden	__ZNSt3__16vectorIiNS_9allocatorIiEEE21_ConstructTransactionC1ERS3_m
	.p2align	4, 0x90
__ZNSt3__16vectorIiNS_9allocatorIiEEE21_ConstructTransactionC1ERS3_m: ## @_ZNSt3__16vectorIiNS_9allocatorIiEEE21_ConstructTransactionC1ERS3_m
	.cfi_startproc
## %bb.0:
	pushq	%rbp
	.cfi_def_cfa_offset 16
	.cfi_offset %rbp, -16
	movq	%rsp, %rbp
	.cfi_def_cfa_register %rbp
	subq	$32, %rsp
	movq	%rdi, -8(%rbp)
	movq	%rsi, -16(%rbp)
	movq	%rdx, -24(%rbp)
	movq	-8(%rbp), %rdi
	movq	-16(%rbp), %rsi
	movq	-24(%rbp), %rdx
	callq	__ZNSt3__16vectorIiNS_9allocatorIiEEE21_ConstructTransactionC2ERS3_m
	addq	$32, %rsp
	popq	%rbp
	retq
	.cfi_endproc
                                        ## -- End function
	.p2align	4, 0x90                         ## -- Begin function _ZNSt3__116allocator_traitsINS_9allocatorIiEEE9constructIiJRKiEvEEvRS2_PT_DpOT0_
__ZNSt3__116allocator_traitsINS_9allocatorIiEEE9constructIiJRKiEvEEvRS2_PT_DpOT0_: ## @_ZNSt3__116allocator_traitsINS_9allocatorIiEEE9constructIiJRKiEvEEvRS2_PT_DpOT0_
	.cfi_startproc
## %bb.0:
	pushq	%rbp
	.cfi_def_cfa_offset 16
	.cfi_offset %rbp, -16
	movq	%rsp, %rbp
	.cfi_def_cfa_register %rbp
	subq	$48, %rsp
	movq	%rdi, -8(%rbp)
	movq	%rsi, -16(%rbp)
	movq	%rdx, -24(%rbp)
	movq	-8(%rbp), %rax
	movq	%rax, -40(%rbp)                 ## 8-byte Spill
	movq	-16(%rbp), %rax
	movq	%rax, -32(%rbp)                 ## 8-byte Spill
	movq	-24(%rbp), %rdi
	callq	__ZNSt3__1L7forwardIRKiEEOT_RNS_16remove_referenceIS3_E4typeE
	movq	-40(%rbp), %rdi                 ## 8-byte Reload
	movq	-32(%rbp), %rsi                 ## 8-byte Reload
	movq	%rax, %rdx
	callq	__ZNSt3__19allocatorIiE9constructIiJRKiEEEvPT_DpOT0_
	addq	$48, %rsp
	popq	%rbp
	retq
	.cfi_endproc
                                        ## -- End function
	.p2align	4, 0x90                         ## -- Begin function _ZNSt3__1L7forwardIRKiEEOT_RNS_16remove_referenceIS3_E4typeE
__ZNSt3__1L7forwardIRKiEEOT_RNS_16remove_referenceIS3_E4typeE: ## @_ZNSt3__1L7forwardIRKiEEOT_RNS_16remove_referenceIS3_E4typeE
	.cfi_startproc
## %bb.0:
	pushq	%rbp
	.cfi_def_cfa_offset 16
	.cfi_offset %rbp, -16
	movq	%rsp, %rbp
	.cfi_def_cfa_register %rbp
	movq	%rdi, -8(%rbp)
	movq	-8(%rbp), %rax
	popq	%rbp
	retq
	.cfi_endproc
                                        ## -- End function
	.globl	__ZNSt3__16vectorIiNS_9allocatorIiEEE21_ConstructTransactionD1Ev ## -- Begin function _ZNSt3__16vectorIiNS_9allocatorIiEEE21_ConstructTransactionD1Ev
	.weak_def_can_be_hidden	__ZNSt3__16vectorIiNS_9allocatorIiEEE21_ConstructTransactionD1Ev
	.p2align	4, 0x90
__ZNSt3__16vectorIiNS_9allocatorIiEEE21_ConstructTransactionD1Ev: ## @_ZNSt3__16vectorIiNS_9allocatorIiEEE21_ConstructTransactionD1Ev
	.cfi_startproc
## %bb.0:
	pushq	%rbp
	.cfi_def_cfa_offset 16
	.cfi_offset %rbp, -16
	movq	%rsp, %rbp
	.cfi_def_cfa_register %rbp
	subq	$16, %rsp
	movq	%rdi, -8(%rbp)
	movq	-8(%rbp), %rdi
	callq	__ZNSt3__16vectorIiNS_9allocatorIiEEE21_ConstructTransactionD2Ev
	addq	$16, %rsp
	popq	%rbp
	retq
	.cfi_endproc
                                        ## -- End function
	.globl	__ZNSt3__16vectorIiNS_9allocatorIiEEE21_ConstructTransactionC2ERS3_m ## -- Begin function _ZNSt3__16vectorIiNS_9allocatorIiEEE21_ConstructTransactionC2ERS3_m
	.weak_def_can_be_hidden	__ZNSt3__16vectorIiNS_9allocatorIiEEE21_ConstructTransactionC2ERS3_m
	.p2align	4, 0x90
__ZNSt3__16vectorIiNS_9allocatorIiEEE21_ConstructTransactionC2ERS3_m: ## @_ZNSt3__16vectorIiNS_9allocatorIiEEE21_ConstructTransactionC2ERS3_m
	.cfi_startproc
## %bb.0:
	pushq	%rbp
	.cfi_def_cfa_offset 16
	.cfi_offset %rbp, -16
	movq	%rsp, %rbp
	.cfi_def_cfa_register %rbp
	movq	%rdi, -8(%rbp)
	movq	%rsi, -16(%rbp)
	movq	%rdx, -24(%rbp)
	movq	-8(%rbp), %rax
	movq	-16(%rbp), %rcx
	movq	%rcx, (%rax)
	movq	-16(%rbp), %rcx
	movq	8(%rcx), %rcx
	movq	%rcx, 8(%rax)
	movq	-16(%rbp), %rcx
	movq	8(%rcx), %rcx
	movq	-24(%rbp), %rdx
	shlq	$2, %rdx
	addq	%rdx, %rcx
	movq	%rcx, 16(%rax)
	popq	%rbp
	retq
	.cfi_endproc
                                        ## -- End function
	.p2align	4, 0x90                         ## -- Begin function _ZNSt3__19allocatorIiE9constructIiJRKiEEEvPT_DpOT0_
__ZNSt3__19allocatorIiE9constructIiJRKiEEEvPT_DpOT0_: ## @_ZNSt3__19allocatorIiE9constructIiJRKiEEEvPT_DpOT0_
	.cfi_startproc
## %bb.0:
	pushq	%rbp
	.cfi_def_cfa_offset 16
	.cfi_offset %rbp, -16
	movq	%rsp, %rbp
	.cfi_def_cfa_register %rbp
	subq	$32, %rsp
	movq	%rdi, -8(%rbp)
	movq	%rsi, -16(%rbp)
	movq	%rdx, -24(%rbp)
	movq	-16(%rbp), %rax
	movq	%rax, -32(%rbp)                 ## 8-byte Spill
	movq	-24(%rbp), %rdi
	callq	__ZNSt3__1L7forwardIRKiEEOT_RNS_16remove_referenceIS3_E4typeE
	movq	%rax, %rcx
	movq	-32(%rbp), %rax                 ## 8-byte Reload
	movl	(%rcx), %ecx
	movl	%ecx, (%rax)
	addq	$32, %rsp
	popq	%rbp
	retq
	.cfi_endproc
                                        ## -- End function
	.globl	__ZNSt3__16vectorIiNS_9allocatorIiEEE21_ConstructTransactionD2Ev ## -- Begin function _ZNSt3__16vectorIiNS_9allocatorIiEEE21_ConstructTransactionD2Ev
	.weak_def_can_be_hidden	__ZNSt3__16vectorIiNS_9allocatorIiEEE21_ConstructTransactionD2Ev
	.p2align	4, 0x90
__ZNSt3__16vectorIiNS_9allocatorIiEEE21_ConstructTransactionD2Ev: ## @_ZNSt3__16vectorIiNS_9allocatorIiEEE21_ConstructTransactionD2Ev
	.cfi_startproc
## %bb.0:
	pushq	%rbp
	.cfi_def_cfa_offset 16
	.cfi_offset %rbp, -16
	movq	%rsp, %rbp
	.cfi_def_cfa_register %rbp
	movq	%rdi, -8(%rbp)
	movq	-8(%rbp), %rax
	movq	8(%rax), %rcx
	movq	(%rax), %rax
	movq	%rcx, 8(%rax)
	popq	%rbp
	retq
	.cfi_endproc
                                        ## -- End function
	.p2align	4, 0x90                         ## -- Begin function _ZNKSt3__16vectorIiNS_9allocatorIiEEE11__recommendEm
__ZNKSt3__16vectorIiNS_9allocatorIiEEE11__recommendEm: ## @_ZNKSt3__16vectorIiNS_9allocatorIiEEE11__recommendEm
	.cfi_startproc
## %bb.0:
	pushq	%rbp
	.cfi_def_cfa_offset 16
	.cfi_offset %rbp, -16
	movq	%rsp, %rbp
	.cfi_def_cfa_register %rbp
	subq	$64, %rsp
	movq	%rdi, -16(%rbp)
	movq	%rsi, -24(%rbp)
	movq	-16(%rbp), %rdi
	movq	%rdi, -56(%rbp)                 ## 8-byte Spill
	callq	__ZNKSt3__16vectorIiNS_9allocatorIiEEE8max_sizeEv
	movq	%rax, -32(%rbp)
	movq	-24(%rbp), %rax
	cmpq	-32(%rbp), %rax
	jbe	LBB57_2
## %bb.1:
	movq	-56(%rbp), %rdi                 ## 8-byte Reload
	callq	__ZNKSt3__120__vector_base_commonILb1EE20__throw_length_errorEv
LBB57_2:
	movq	-56(%rbp), %rdi                 ## 8-byte Reload
	callq	__ZNKSt3__16vectorIiNS_9allocatorIiEEE8capacityEv
	movq	%rax, -40(%rbp)
	movq	-40(%rbp), %rax
	movq	-32(%rbp), %rcx
	shrq	$1, %rcx
	cmpq	%rcx, %rax
	jb	LBB57_4
## %bb.3:
	movq	-32(%rbp), %rax
	movq	%rax, -8(%rbp)
	jmp	LBB57_5
LBB57_4:
	movq	-40(%rbp), %rax
	shlq	$1, %rax
	movq	%rax, -48(%rbp)
	leaq	-48(%rbp), %rdi
	leaq	-24(%rbp), %rsi
	callq	__ZNSt3__1L3maxImEERKT_S3_S3_
	movq	(%rax), %rax
	movq	%rax, -8(%rbp)
LBB57_5:
	movq	-8(%rbp), %rax
	addq	$64, %rsp
	popq	%rbp
	retq
	.cfi_endproc
                                        ## -- End function
	.globl	__ZNSt3__114__split_bufferIiRNS_9allocatorIiEEEC1EmmS3_ ## -- Begin function _ZNSt3__114__split_bufferIiRNS_9allocatorIiEEEC1EmmS3_
	.weak_def_can_be_hidden	__ZNSt3__114__split_bufferIiRNS_9allocatorIiEEEC1EmmS3_
	.p2align	4, 0x90
__ZNSt3__114__split_bufferIiRNS_9allocatorIiEEEC1EmmS3_: ## @_ZNSt3__114__split_bufferIiRNS_9allocatorIiEEEC1EmmS3_
	.cfi_startproc
## %bb.0:
	pushq	%rbp
	.cfi_def_cfa_offset 16
	.cfi_offset %rbp, -16
	movq	%rsp, %rbp
	.cfi_def_cfa_register %rbp
	subq	$32, %rsp
	movq	%rdi, -8(%rbp)
	movq	%rsi, -16(%rbp)
	movq	%rdx, -24(%rbp)
	movq	%rcx, -32(%rbp)
	movq	-8(%rbp), %rdi
	movq	-16(%rbp), %rsi
	movq	-24(%rbp), %rdx
	movq	-32(%rbp), %rcx
	callq	__ZNSt3__114__split_bufferIiRNS_9allocatorIiEEEC2EmmS3_
	addq	$32, %rsp
	popq	%rbp
	retq
	.cfi_endproc
                                        ## -- End function
	.p2align	4, 0x90                         ## -- Begin function _ZNSt3__116allocator_traitsINS_9allocatorIiEEE9constructIiJKiEvEEvRS2_PT_DpOT0_
__ZNSt3__116allocator_traitsINS_9allocatorIiEEE9constructIiJKiEvEEvRS2_PT_DpOT0_: ## @_ZNSt3__116allocator_traitsINS_9allocatorIiEEE9constructIiJKiEvEEvRS2_PT_DpOT0_
	.cfi_startproc
## %bb.0:
	pushq	%rbp
	.cfi_def_cfa_offset 16
	.cfi_offset %rbp, -16
	movq	%rsp, %rbp
	.cfi_def_cfa_register %rbp
	subq	$48, %rsp
	movq	%rdi, -8(%rbp)
	movq	%rsi, -16(%rbp)
	movq	%rdx, -24(%rbp)
	movq	-8(%rbp), %rax
	movq	%rax, -40(%rbp)                 ## 8-byte Spill
	movq	-16(%rbp), %rax
	movq	%rax, -32(%rbp)                 ## 8-byte Spill
	movq	-24(%rbp), %rdi
	callq	__ZNSt3__1L7forwardIKiEEOT_RNS_16remove_referenceIS2_E4typeE
	movq	-40(%rbp), %rdi                 ## 8-byte Reload
	movq	-32(%rbp), %rsi                 ## 8-byte Reload
	movq	%rax, %rdx
	callq	__ZNSt3__19allocatorIiE9constructIiJKiEEEvPT_DpOT0_
	addq	$48, %rsp
	popq	%rbp
	retq
	.cfi_endproc
                                        ## -- End function
	.p2align	4, 0x90                         ## -- Begin function _ZNSt3__1L7forwardIKiEEOT_RNS_16remove_referenceIS2_E4typeE
__ZNSt3__1L7forwardIKiEEOT_RNS_16remove_referenceIS2_E4typeE: ## @_ZNSt3__1L7forwardIKiEEOT_RNS_16remove_referenceIS2_E4typeE
	.cfi_startproc
## %bb.0:
	pushq	%rbp
	.cfi_def_cfa_offset 16
	.cfi_offset %rbp, -16
	movq	%rsp, %rbp
	.cfi_def_cfa_register %rbp
	movq	%rdi, -8(%rbp)
	movq	-8(%rbp), %rax
	popq	%rbp
	retq
	.cfi_endproc
                                        ## -- End function
	.globl	__ZNSt3__16vectorIiNS_9allocatorIiEEE26__swap_out_circular_bufferERNS_14__split_bufferIiRS2_EE ## -- Begin function _ZNSt3__16vectorIiNS_9allocatorIiEEE26__swap_out_circular_bufferERNS_14__split_bufferIiRS2_EE
	.weak_definition	__ZNSt3__16vectorIiNS_9allocatorIiEEE26__swap_out_circular_bufferERNS_14__split_bufferIiRS2_EE
	.p2align	4, 0x90
__ZNSt3__16vectorIiNS_9allocatorIiEEE26__swap_out_circular_bufferERNS_14__split_bufferIiRS2_EE: ## @_ZNSt3__16vectorIiNS_9allocatorIiEEE26__swap_out_circular_bufferERNS_14__split_bufferIiRS2_EE
	.cfi_startproc
## %bb.0:
	pushq	%rbp
	.cfi_def_cfa_offset 16
	.cfi_offset %rbp, -16
	movq	%rsp, %rbp
	.cfi_def_cfa_register %rbp
	subq	$32, %rsp
	movq	%rdi, -8(%rbp)
	movq	%rsi, -16(%rbp)
	movq	-8(%rbp), %rdi
	movq	%rdi, -24(%rbp)                 ## 8-byte Spill
	callq	__ZNKSt3__16vectorIiNS_9allocatorIiEEE17__annotate_deleteEv
	movq	-24(%rbp), %rdi                 ## 8-byte Reload
	callq	__ZNSt3__113__vector_baseIiNS_9allocatorIiEEE7__allocEv
	movq	%rax, %rdi
	movq	-24(%rbp), %rax                 ## 8-byte Reload
	movq	(%rax), %rsi
	movq	8(%rax), %rdx
	movq	-16(%rbp), %rcx
	addq	$8, %rcx
	callq	__ZNSt3__1L46__construct_backward_with_exception_guaranteesINS_9allocatorIiEEivEEvRT_PT0_S6_RS6_
	movq	-24(%rbp), %rdi                 ## 8-byte Reload
	movq	-16(%rbp), %rsi
	addq	$8, %rsi
	callq	__ZNSt3__1L4swapIPiEEvRT_S3_
	movq	-24(%rbp), %rdi                 ## 8-byte Reload
	addq	$8, %rdi
	movq	-16(%rbp), %rsi
	addq	$16, %rsi
	callq	__ZNSt3__1L4swapIPiEEvRT_S3_
	movq	-24(%rbp), %rdi                 ## 8-byte Reload
	callq	__ZNSt3__113__vector_baseIiNS_9allocatorIiEEE9__end_capEv
	movq	%rax, -32(%rbp)                 ## 8-byte Spill
	movq	-16(%rbp), %rdi
	callq	__ZNSt3__114__split_bufferIiRNS_9allocatorIiEEE9__end_capEv
	movq	-32(%rbp), %rdi                 ## 8-byte Reload
	movq	%rax, %rsi
	callq	__ZNSt3__1L4swapIPiEEvRT_S3_
	movq	-24(%rbp), %rdi                 ## 8-byte Reload
	movq	-16(%rbp), %rax
	movq	8(%rax), %rcx
	movq	-16(%rbp), %rax
	movq	%rcx, (%rax)
	callq	__ZNKSt3__16vectorIiNS_9allocatorIiEEE4sizeEv
	movq	-24(%rbp), %rdi                 ## 8-byte Reload
	movq	%rax, %rsi
	callq	__ZNKSt3__16vectorIiNS_9allocatorIiEEE14__annotate_newEm
	movq	-24(%rbp), %rdi                 ## 8-byte Reload
	callq	__ZNSt3__16vectorIiNS_9allocatorIiEEE26__invalidate_all_iteratorsEv
	addq	$32, %rsp
	popq	%rbp
	retq
	.cfi_endproc
                                        ## -- End function
	.globl	__ZNSt3__114__split_bufferIiRNS_9allocatorIiEEED1Ev ## -- Begin function _ZNSt3__114__split_bufferIiRNS_9allocatorIiEEED1Ev
	.weak_def_can_be_hidden	__ZNSt3__114__split_bufferIiRNS_9allocatorIiEEED1Ev
	.p2align	4, 0x90
__ZNSt3__114__split_bufferIiRNS_9allocatorIiEEED1Ev: ## @_ZNSt3__114__split_bufferIiRNS_9allocatorIiEEED1Ev
	.cfi_startproc
## %bb.0:
	pushq	%rbp
	.cfi_def_cfa_offset 16
	.cfi_offset %rbp, -16
	movq	%rsp, %rbp
	.cfi_def_cfa_register %rbp
	subq	$16, %rsp
	movq	%rdi, -8(%rbp)
	movq	-8(%rbp), %rdi
	callq	__ZNSt3__114__split_bufferIiRNS_9allocatorIiEEED2Ev
	addq	$16, %rsp
	popq	%rbp
	retq
	.cfi_endproc
                                        ## -- End function
	.globl	__ZNKSt3__16vectorIiNS_9allocatorIiEEE8max_sizeEv ## -- Begin function _ZNKSt3__16vectorIiNS_9allocatorIiEEE8max_sizeEv
	.weak_definition	__ZNKSt3__16vectorIiNS_9allocatorIiEEE8max_sizeEv
	.p2align	4, 0x90
__ZNKSt3__16vectorIiNS_9allocatorIiEEE8max_sizeEv: ## @_ZNKSt3__16vectorIiNS_9allocatorIiEEE8max_sizeEv
Lfunc_begin5:
	.cfi_startproc
	.cfi_personality 155, ___gxx_personality_v0
	.cfi_lsda 16, Lexception5
## %bb.0:
	pushq	%rbp
	.cfi_def_cfa_offset 16
	.cfi_offset %rbp, -16
	movq	%rsp, %rbp
	.cfi_def_cfa_register %rbp
	subq	$48, %rsp
	movq	%rdi, -8(%rbp)
	movq	-8(%rbp), %rdi
	callq	__ZNKSt3__113__vector_baseIiNS_9allocatorIiEEE7__allocEv
	movq	%rax, %rdi
	callq	__ZNSt3__116allocator_traitsINS_9allocatorIiEEE8max_sizeIS2_vEEmRKS2_
	movq	%rax, -16(%rbp)
	callq	__ZNSt3__114numeric_limitsIlE3maxEv
	movq	%rax, -24(%rbp)
Ltmp26:
	leaq	-16(%rbp), %rdi
	leaq	-24(%rbp), %rsi
	callq	__ZNSt3__1L3minImEERKT_S3_S3_
Ltmp27:
	movq	%rax, -48(%rbp)                 ## 8-byte Spill
	jmp	LBB63_1
LBB63_1:
	movq	-48(%rbp), %rax                 ## 8-byte Reload
	movq	(%rax), %rax
	addq	$48, %rsp
	popq	%rbp
	retq
LBB63_2:
Ltmp28:
	movq	%rax, %rcx
	movl	%edx, %eax
	movq	%rcx, -32(%rbp)
	movl	%eax, -36(%rbp)
## %bb.3:
	movq	-32(%rbp), %rdi
	callq	___cxa_call_unexpected
Lfunc_end5:
	.cfi_endproc
	.section	__TEXT,__gcc_except_tab
	.p2align	2
GCC_except_table63:
Lexception5:
	.byte	255                             ## @LPStart Encoding = omit
	.byte	155                             ## @TType Encoding = indirect pcrel sdata4
	.uleb128 Lttbase5-Lttbaseref5
Lttbaseref5:
	.byte	1                               ## Call site Encoding = uleb128
	.uleb128 Lcst_end5-Lcst_begin5
Lcst_begin5:
	.uleb128 Ltmp26-Lfunc_begin5            ## >> Call Site 1 <<
	.uleb128 Ltmp27-Ltmp26                  ##   Call between Ltmp26 and Ltmp27
	.uleb128 Ltmp28-Lfunc_begin5            ##     jumps to Ltmp28
	.byte	1                               ##   On action: 1
	.uleb128 Ltmp27-Lfunc_begin5            ## >> Call Site 2 <<
	.uleb128 Lfunc_end5-Ltmp27              ##   Call between Ltmp27 and Lfunc_end5
	.byte	0                               ##     has no landing pad
	.byte	0                               ##   On action: cleanup
Lcst_end5:
	.byte	127                             ## >> Action Record 1 <<
                                        ##   Filter TypeInfo -1
	.byte	0                               ##   No further actions
	.p2align	2
Lttbase5:
                                        ## >> Filter TypeInfos <<
	.byte	0
	.p2align	2
                                        ## -- End function
	.section	__TEXT,__text,regular,pure_instructions
	.p2align	4, 0x90                         ## -- Begin function _ZNSt3__1L3maxImEERKT_S3_S3_
__ZNSt3__1L3maxImEERKT_S3_S3_:          ## @_ZNSt3__1L3maxImEERKT_S3_S3_
	.cfi_startproc
## %bb.0:
	pushq	%rbp
	.cfi_def_cfa_offset 16
	.cfi_offset %rbp, -16
	movq	%rsp, %rbp
	.cfi_def_cfa_register %rbp
	subq	$32, %rsp
	movq	%rdi, -8(%rbp)
	movq	%rsi, -16(%rbp)
	movq	-8(%rbp), %rdi
	movq	-16(%rbp), %rsi
	callq	__ZNSt3__1L3maxImNS_6__lessImmEEEERKT_S5_S5_T0_
	addq	$32, %rsp
	popq	%rbp
	retq
	.cfi_endproc
                                        ## -- End function
	.p2align	4, 0x90                         ## -- Begin function _ZNSt3__1L3minImEERKT_S3_S3_
__ZNSt3__1L3minImEERKT_S3_S3_:          ## @_ZNSt3__1L3minImEERKT_S3_S3_
	.cfi_startproc
## %bb.0:
	pushq	%rbp
	.cfi_def_cfa_offset 16
	.cfi_offset %rbp, -16
	movq	%rsp, %rbp
	.cfi_def_cfa_register %rbp
	subq	$32, %rsp
	movq	%rdi, -8(%rbp)
	movq	%rsi, -16(%rbp)
	movq	-8(%rbp), %rdi
	movq	-16(%rbp), %rsi
	callq	__ZNSt3__1L3minImNS_6__lessImmEEEERKT_S5_S5_T0_
	addq	$32, %rsp
	popq	%rbp
	retq
	.cfi_endproc
                                        ## -- End function
	.p2align	4, 0x90                         ## -- Begin function _ZNSt3__116allocator_traitsINS_9allocatorIiEEE8max_sizeIS2_vEEmRKS2_
__ZNSt3__116allocator_traitsINS_9allocatorIiEEE8max_sizeIS2_vEEmRKS2_: ## @_ZNSt3__116allocator_traitsINS_9allocatorIiEEE8max_sizeIS2_vEEmRKS2_
	.cfi_startproc
## %bb.0:
	pushq	%rbp
	.cfi_def_cfa_offset 16
	.cfi_offset %rbp, -16
	movq	%rsp, %rbp
	.cfi_def_cfa_register %rbp
	subq	$16, %rsp
	movq	%rdi, -8(%rbp)
	movq	-8(%rbp), %rdi
	callq	__ZNKSt3__19allocatorIiE8max_sizeEv
	addq	$16, %rsp
	popq	%rbp
	retq
	.cfi_endproc
                                        ## -- End function
	.p2align	4, 0x90                         ## -- Begin function _ZNKSt3__113__vector_baseIiNS_9allocatorIiEEE7__allocEv
__ZNKSt3__113__vector_baseIiNS_9allocatorIiEEE7__allocEv: ## @_ZNKSt3__113__vector_baseIiNS_9allocatorIiEEE7__allocEv
	.cfi_startproc
## %bb.0:
	pushq	%rbp
	.cfi_def_cfa_offset 16
	.cfi_offset %rbp, -16
	movq	%rsp, %rbp
	.cfi_def_cfa_register %rbp
	subq	$16, %rsp
	movq	%rdi, -8(%rbp)
	movq	-8(%rbp), %rdi
	addq	$16, %rdi
	callq	__ZNKSt3__117__compressed_pairIPiNS_9allocatorIiEEE6secondEv
	addq	$16, %rsp
	popq	%rbp
	retq
	.cfi_endproc
                                        ## -- End function
	.p2align	4, 0x90                         ## -- Begin function _ZNSt3__114numeric_limitsIlE3maxEv
__ZNSt3__114numeric_limitsIlE3maxEv:    ## @_ZNSt3__114numeric_limitsIlE3maxEv
	.cfi_startproc
## %bb.0:
	pushq	%rbp
	.cfi_def_cfa_offset 16
	.cfi_offset %rbp, -16
	movq	%rsp, %rbp
	.cfi_def_cfa_register %rbp
	callq	__ZNSt3__123__libcpp_numeric_limitsIlLb1EE3maxEv
	popq	%rbp
	retq
	.cfi_endproc
                                        ## -- End function
	.p2align	4, 0x90                         ## -- Begin function _ZNSt3__1L3minImNS_6__lessImmEEEERKT_S5_S5_T0_
__ZNSt3__1L3minImNS_6__lessImmEEEERKT_S5_S5_T0_: ## @_ZNSt3__1L3minImNS_6__lessImmEEEERKT_S5_S5_T0_
	.cfi_startproc
## %bb.0:
	pushq	%rbp
	.cfi_def_cfa_offset 16
	.cfi_offset %rbp, -16
	movq	%rsp, %rbp
	.cfi_def_cfa_register %rbp
	subq	$32, %rsp
	movq	%rdi, -16(%rbp)
	movq	%rsi, -24(%rbp)
	movq	-24(%rbp), %rsi
	movq	-16(%rbp), %rdx
	leaq	-8(%rbp), %rdi
	callq	__ZNKSt3__16__lessImmEclERKmS3_
	testb	$1, %al
	jne	LBB69_1
	jmp	LBB69_2
LBB69_1:
	movq	-24(%rbp), %rax
	movq	%rax, -32(%rbp)                 ## 8-byte Spill
	jmp	LBB69_3
LBB69_2:
	movq	-16(%rbp), %rax
	movq	%rax, -32(%rbp)                 ## 8-byte Spill
LBB69_3:
	movq	-32(%rbp), %rax                 ## 8-byte Reload
	addq	$32, %rsp
	popq	%rbp
	retq
	.cfi_endproc
                                        ## -- End function
	.p2align	4, 0x90                         ## -- Begin function _ZNKSt3__16__lessImmEclERKmS3_
__ZNKSt3__16__lessImmEclERKmS3_:        ## @_ZNKSt3__16__lessImmEclERKmS3_
	.cfi_startproc
## %bb.0:
	pushq	%rbp
	.cfi_def_cfa_offset 16
	.cfi_offset %rbp, -16
	movq	%rsp, %rbp
	.cfi_def_cfa_register %rbp
	movq	%rdi, -8(%rbp)
	movq	%rsi, -16(%rbp)
	movq	%rdx, -24(%rbp)
	movq	-16(%rbp), %rax
	movq	(%rax), %rax
	movq	-24(%rbp), %rcx
	cmpq	(%rcx), %rax
	setb	%al
	andb	$1, %al
	movzbl	%al, %eax
	popq	%rbp
	retq
	.cfi_endproc
                                        ## -- End function
	.p2align	4, 0x90                         ## -- Begin function _ZNKSt3__19allocatorIiE8max_sizeEv
__ZNKSt3__19allocatorIiE8max_sizeEv:    ## @_ZNKSt3__19allocatorIiE8max_sizeEv
	.cfi_startproc
## %bb.0:
	pushq	%rbp
	.cfi_def_cfa_offset 16
	.cfi_offset %rbp, -16
	movq	%rsp, %rbp
	.cfi_def_cfa_register %rbp
	movq	%rdi, -8(%rbp)
	movabsq	$4611686018427387903, %rax      ## imm = 0x3FFFFFFFFFFFFFFF
	popq	%rbp
	retq
	.cfi_endproc
                                        ## -- End function
	.p2align	4, 0x90                         ## -- Begin function _ZNKSt3__117__compressed_pairIPiNS_9allocatorIiEEE6secondEv
__ZNKSt3__117__compressed_pairIPiNS_9allocatorIiEEE6secondEv: ## @_ZNKSt3__117__compressed_pairIPiNS_9allocatorIiEEE6secondEv
	.cfi_startproc
## %bb.0:
	pushq	%rbp
	.cfi_def_cfa_offset 16
	.cfi_offset %rbp, -16
	movq	%rsp, %rbp
	.cfi_def_cfa_register %rbp
	subq	$16, %rsp
	movq	%rdi, -8(%rbp)
	movq	-8(%rbp), %rdi
	callq	__ZNKSt3__122__compressed_pair_elemINS_9allocatorIiEELi1ELb1EE5__getEv
	addq	$16, %rsp
	popq	%rbp
	retq
	.cfi_endproc
                                        ## -- End function
	.p2align	4, 0x90                         ## -- Begin function _ZNKSt3__122__compressed_pair_elemINS_9allocatorIiEELi1ELb1EE5__getEv
__ZNKSt3__122__compressed_pair_elemINS_9allocatorIiEELi1ELb1EE5__getEv: ## @_ZNKSt3__122__compressed_pair_elemINS_9allocatorIiEELi1ELb1EE5__getEv
	.cfi_startproc
## %bb.0:
	pushq	%rbp
	.cfi_def_cfa_offset 16
	.cfi_offset %rbp, -16
	movq	%rsp, %rbp
	.cfi_def_cfa_register %rbp
	movq	%rdi, -8(%rbp)
	movq	-8(%rbp), %rax
	popq	%rbp
	retq
	.cfi_endproc
                                        ## -- End function
	.p2align	4, 0x90                         ## -- Begin function _ZNSt3__123__libcpp_numeric_limitsIlLb1EE3maxEv
__ZNSt3__123__libcpp_numeric_limitsIlLb1EE3maxEv: ## @_ZNSt3__123__libcpp_numeric_limitsIlLb1EE3maxEv
	.cfi_startproc
## %bb.0:
	pushq	%rbp
	.cfi_def_cfa_offset 16
	.cfi_offset %rbp, -16
	movq	%rsp, %rbp
	.cfi_def_cfa_register %rbp
	movabsq	$9223372036854775807, %rax      ## imm = 0x7FFFFFFFFFFFFFFF
	popq	%rbp
	retq
	.cfi_endproc
                                        ## -- End function
	.p2align	4, 0x90                         ## -- Begin function _ZNSt3__1L3maxImNS_6__lessImmEEEERKT_S5_S5_T0_
__ZNSt3__1L3maxImNS_6__lessImmEEEERKT_S5_S5_T0_: ## @_ZNSt3__1L3maxImNS_6__lessImmEEEERKT_S5_S5_T0_
	.cfi_startproc
## %bb.0:
	pushq	%rbp
	.cfi_def_cfa_offset 16
	.cfi_offset %rbp, -16
	movq	%rsp, %rbp
	.cfi_def_cfa_register %rbp
	subq	$32, %rsp
	movq	%rdi, -16(%rbp)
	movq	%rsi, -24(%rbp)
	movq	-16(%rbp), %rsi
	movq	-24(%rbp), %rdx
	leaq	-8(%rbp), %rdi
	callq	__ZNKSt3__16__lessImmEclERKmS3_
	testb	$1, %al
	jne	LBB75_1
	jmp	LBB75_2
LBB75_1:
	movq	-24(%rbp), %rax
	movq	%rax, -32(%rbp)                 ## 8-byte Spill
	jmp	LBB75_3
LBB75_2:
	movq	-16(%rbp), %rax
	movq	%rax, -32(%rbp)                 ## 8-byte Spill
LBB75_3:
	movq	-32(%rbp), %rax                 ## 8-byte Reload
	addq	$32, %rsp
	popq	%rbp
	retq
	.cfi_endproc
                                        ## -- End function
	.globl	__ZNSt3__114__split_bufferIiRNS_9allocatorIiEEEC2EmmS3_ ## -- Begin function _ZNSt3__114__split_bufferIiRNS_9allocatorIiEEEC2EmmS3_
	.weak_def_can_be_hidden	__ZNSt3__114__split_bufferIiRNS_9allocatorIiEEEC2EmmS3_
	.p2align	4, 0x90
__ZNSt3__114__split_bufferIiRNS_9allocatorIiEEEC2EmmS3_: ## @_ZNSt3__114__split_bufferIiRNS_9allocatorIiEEEC2EmmS3_
	.cfi_startproc
## %bb.0:
	pushq	%rbp
	.cfi_def_cfa_offset 16
	.cfi_offset %rbp, -16
	movq	%rsp, %rbp
	.cfi_def_cfa_register %rbp
	subq	$80, %rsp
	movq	%rdi, -8(%rbp)
	movq	%rsi, -16(%rbp)
	movq	%rdx, -24(%rbp)
	movq	%rcx, -32(%rbp)
	movq	-8(%rbp), %rax
	movq	%rax, -64(%rbp)                 ## 8-byte Spill
	addq	$24, %rax
	movq	%rax, -56(%rbp)                 ## 8-byte Spill
	callq	__ZNSt3__1L15__get_nullptr_tEv
	movq	-56(%rbp), %rdi                 ## 8-byte Reload
	movq	%rax, -40(%rbp)
	movq	-32(%rbp), %rdx
	leaq	-40(%rbp), %rsi
	callq	__ZNSt3__117__compressed_pairIPiRNS_9allocatorIiEEEC1INS_9nullptr_tES4_EEOT_OT0_
	cmpq	$0, -16(%rbp)
	je	LBB76_2
## %bb.1:
	movq	-64(%rbp), %rdi                 ## 8-byte Reload
	callq	__ZNSt3__114__split_bufferIiRNS_9allocatorIiEEE7__allocEv
	movq	%rax, %rdi
	movq	-16(%rbp), %rsi
	callq	__ZNSt3__116allocator_traitsINS_9allocatorIiEEE8allocateERS2_m
	movq	%rax, -72(%rbp)                 ## 8-byte Spill
	jmp	LBB76_3
LBB76_2:
	callq	__ZNSt3__1L15__get_nullptr_tEv
	movq	%rax, -48(%rbp)
	leaq	-48(%rbp), %rdi
	callq	__ZNKSt3__19nullptr_tcvPT_IiEEv
	movq	%rax, -72(%rbp)                 ## 8-byte Spill
LBB76_3:
	movq	-64(%rbp), %rdi                 ## 8-byte Reload
	movq	-72(%rbp), %rax                 ## 8-byte Reload
	movq	%rax, (%rdi)
	movq	(%rdi), %rax
	movq	-24(%rbp), %rcx
	shlq	$2, %rcx
	addq	%rcx, %rax
	movq	%rax, 16(%rdi)
	movq	%rax, 8(%rdi)
	movq	(%rdi), %rax
	movq	-16(%rbp), %rcx
	shlq	$2, %rcx
	addq	%rcx, %rax
	movq	%rax, -80(%rbp)                 ## 8-byte Spill
	callq	__ZNSt3__114__split_bufferIiRNS_9allocatorIiEEE9__end_capEv
	movq	-80(%rbp), %rcx                 ## 8-byte Reload
	movq	%rcx, (%rax)
	addq	$80, %rsp
	popq	%rbp
	retq
	.cfi_endproc
                                        ## -- End function
	.p2align	4, 0x90                         ## -- Begin function _ZNSt3__117__compressed_pairIPiRNS_9allocatorIiEEEC1INS_9nullptr_tES4_EEOT_OT0_
__ZNSt3__117__compressed_pairIPiRNS_9allocatorIiEEEC1INS_9nullptr_tES4_EEOT_OT0_: ## @_ZNSt3__117__compressed_pairIPiRNS_9allocatorIiEEEC1INS_9nullptr_tES4_EEOT_OT0_
	.cfi_startproc
## %bb.0:
	pushq	%rbp
	.cfi_def_cfa_offset 16
	.cfi_offset %rbp, -16
	movq	%rsp, %rbp
	.cfi_def_cfa_register %rbp
	subq	$32, %rsp
	movq	%rdi, -8(%rbp)
	movq	%rsi, -16(%rbp)
	movq	%rdx, -24(%rbp)
	movq	-8(%rbp), %rdi
	movq	-16(%rbp), %rsi
	movq	-24(%rbp), %rdx
	callq	__ZNSt3__117__compressed_pairIPiRNS_9allocatorIiEEEC2INS_9nullptr_tES4_EEOT_OT0_
	addq	$32, %rsp
	popq	%rbp
	retq
	.cfi_endproc
                                        ## -- End function
	.p2align	4, 0x90                         ## -- Begin function _ZNSt3__116allocator_traitsINS_9allocatorIiEEE8allocateERS2_m
__ZNSt3__116allocator_traitsINS_9allocatorIiEEE8allocateERS2_m: ## @_ZNSt3__116allocator_traitsINS_9allocatorIiEEE8allocateERS2_m
	.cfi_startproc
## %bb.0:
	pushq	%rbp
	.cfi_def_cfa_offset 16
	.cfi_offset %rbp, -16
	movq	%rsp, %rbp
	.cfi_def_cfa_register %rbp
	subq	$16, %rsp
	movq	%rdi, -8(%rbp)
	movq	%rsi, -16(%rbp)
	movq	-8(%rbp), %rdi
	movq	-16(%rbp), %rsi
	callq	__ZNSt3__19allocatorIiE8allocateEm
	addq	$16, %rsp
	popq	%rbp
	retq
	.cfi_endproc
                                        ## -- End function
	.p2align	4, 0x90                         ## -- Begin function _ZNSt3__114__split_bufferIiRNS_9allocatorIiEEE7__allocEv
__ZNSt3__114__split_bufferIiRNS_9allocatorIiEEE7__allocEv: ## @_ZNSt3__114__split_bufferIiRNS_9allocatorIiEEE7__allocEv
	.cfi_startproc
## %bb.0:
	pushq	%rbp
	.cfi_def_cfa_offset 16
	.cfi_offset %rbp, -16
	movq	%rsp, %rbp
	.cfi_def_cfa_register %rbp
	subq	$16, %rsp
	movq	%rdi, -8(%rbp)
	movq	-8(%rbp), %rdi
	addq	$24, %rdi
	callq	__ZNSt3__117__compressed_pairIPiRNS_9allocatorIiEEE6secondEv
	addq	$16, %rsp
	popq	%rbp
	retq
	.cfi_endproc
                                        ## -- End function
	.p2align	4, 0x90                         ## -- Begin function _ZNSt3__114__split_bufferIiRNS_9allocatorIiEEE9__end_capEv
__ZNSt3__114__split_bufferIiRNS_9allocatorIiEEE9__end_capEv: ## @_ZNSt3__114__split_bufferIiRNS_9allocatorIiEEE9__end_capEv
	.cfi_startproc
## %bb.0:
	pushq	%rbp
	.cfi_def_cfa_offset 16
	.cfi_offset %rbp, -16
	movq	%rsp, %rbp
	.cfi_def_cfa_register %rbp
	subq	$16, %rsp
	movq	%rdi, -8(%rbp)
	movq	-8(%rbp), %rdi
	addq	$24, %rdi
	callq	__ZNSt3__117__compressed_pairIPiRNS_9allocatorIiEEE5firstEv
	addq	$16, %rsp
	popq	%rbp
	retq
	.cfi_endproc
                                        ## -- End function
	.p2align	4, 0x90                         ## -- Begin function _ZNSt3__117__compressed_pairIPiRNS_9allocatorIiEEEC2INS_9nullptr_tES4_EEOT_OT0_
__ZNSt3__117__compressed_pairIPiRNS_9allocatorIiEEEC2INS_9nullptr_tES4_EEOT_OT0_: ## @_ZNSt3__117__compressed_pairIPiRNS_9allocatorIiEEEC2INS_9nullptr_tES4_EEOT_OT0_
	.cfi_startproc
## %bb.0:
	pushq	%rbp
	.cfi_def_cfa_offset 16
	.cfi_offset %rbp, -16
	movq	%rsp, %rbp
	.cfi_def_cfa_register %rbp
	subq	$48, %rsp
	movq	%rdi, -8(%rbp)
	movq	%rsi, -16(%rbp)
	movq	%rdx, -24(%rbp)
	movq	-8(%rbp), %rax
	movq	%rax, -40(%rbp)                 ## 8-byte Spill
	movq	%rax, -48(%rbp)                 ## 8-byte Spill
	movq	-16(%rbp), %rdi
	callq	__ZNSt3__1L7forwardINS_9nullptr_tEEEOT_RNS_16remove_referenceIS2_E4typeE
	movq	-48(%rbp), %rdi                 ## 8-byte Reload
	movq	%rax, %rsi
	callq	__ZNSt3__122__compressed_pair_elemIPiLi0ELb0EEC2INS_9nullptr_tEvEEOT_
	movq	-40(%rbp), %rax                 ## 8-byte Reload
	addq	$8, %rax
	movq	%rax, -32(%rbp)                 ## 8-byte Spill
	movq	-24(%rbp), %rdi
	callq	__ZNSt3__1L7forwardIRNS_9allocatorIiEEEEOT_RNS_16remove_referenceIS4_E4typeE
	movq	-32(%rbp), %rdi                 ## 8-byte Reload
	movq	%rax, %rsi
	callq	__ZNSt3__122__compressed_pair_elemIRNS_9allocatorIiEELi1ELb0EEC2IS3_vEEOT_
	addq	$48, %rsp
	popq	%rbp
	retq
	.cfi_endproc
                                        ## -- End function
	.p2align	4, 0x90                         ## -- Begin function _ZNSt3__1L7forwardIRNS_9allocatorIiEEEEOT_RNS_16remove_referenceIS4_E4typeE
__ZNSt3__1L7forwardIRNS_9allocatorIiEEEEOT_RNS_16remove_referenceIS4_E4typeE: ## @_ZNSt3__1L7forwardIRNS_9allocatorIiEEEEOT_RNS_16remove_referenceIS4_E4typeE
	.cfi_startproc
## %bb.0:
	pushq	%rbp
	.cfi_def_cfa_offset 16
	.cfi_offset %rbp, -16
	movq	%rsp, %rbp
	.cfi_def_cfa_register %rbp
	movq	%rdi, -8(%rbp)
	movq	-8(%rbp), %rax
	popq	%rbp
	retq
	.cfi_endproc
                                        ## -- End function
	.p2align	4, 0x90                         ## -- Begin function _ZNSt3__122__compressed_pair_elemIRNS_9allocatorIiEELi1ELb0EEC2IS3_vEEOT_
__ZNSt3__122__compressed_pair_elemIRNS_9allocatorIiEELi1ELb0EEC2IS3_vEEOT_: ## @_ZNSt3__122__compressed_pair_elemIRNS_9allocatorIiEELi1ELb0EEC2IS3_vEEOT_
	.cfi_startproc
## %bb.0:
	pushq	%rbp
	.cfi_def_cfa_offset 16
	.cfi_offset %rbp, -16
	movq	%rsp, %rbp
	.cfi_def_cfa_register %rbp
	subq	$32, %rsp
	movq	%rdi, -8(%rbp)
	movq	%rsi, -16(%rbp)
	movq	-8(%rbp), %rax
	movq	%rax, -24(%rbp)                 ## 8-byte Spill
	movq	-16(%rbp), %rdi
	callq	__ZNSt3__1L7forwardIRNS_9allocatorIiEEEEOT_RNS_16remove_referenceIS4_E4typeE
	movq	%rax, %rcx
	movq	-24(%rbp), %rax                 ## 8-byte Reload
	movq	%rcx, (%rax)
	addq	$32, %rsp
	popq	%rbp
	retq
	.cfi_endproc
                                        ## -- End function
	.p2align	4, 0x90                         ## -- Begin function _ZNSt3__19allocatorIiE8allocateEm
__ZNSt3__19allocatorIiE8allocateEm:     ## @_ZNSt3__19allocatorIiE8allocateEm
	.cfi_startproc
## %bb.0:
	pushq	%rbp
	.cfi_def_cfa_offset 16
	.cfi_offset %rbp, -16
	movq	%rsp, %rbp
	.cfi_def_cfa_register %rbp
	subq	$32, %rsp
	movq	%rdi, -16(%rbp)
	movq	%rsi, -24(%rbp)
	movq	-16(%rbp), %rdi
	movq	-24(%rbp), %rax
	movq	%rax, -32(%rbp)                 ## 8-byte Spill
	callq	__ZNSt3__116allocator_traitsINS_9allocatorIiEEE8max_sizeIS2_vEEmRKS2_
	movq	%rax, %rcx
	movq	-32(%rbp), %rax                 ## 8-byte Reload
	cmpq	%rcx, %rax
	jbe	LBB84_2
## %bb.1:
	leaq	L_.str(%rip), %rdi
	callq	__ZNSt3__1L20__throw_length_errorEPKc
LBB84_2:
	callq	__ZNSt3__130__libcpp_is_constant_evaluatedEv
	testb	$1, %al
	jne	LBB84_3
	jmp	LBB84_4
LBB84_3:
	movq	-24(%rbp), %rdi
	shlq	$2, %rdi
	callq	__Znwm
	movq	%rax, -8(%rbp)
	jmp	LBB84_5
LBB84_4:
	movq	-24(%rbp), %rdi
	shlq	$2, %rdi
	movl	$4, %esi
	callq	__ZNSt3__1L17__libcpp_allocateEmm
	movq	%rax, -8(%rbp)
LBB84_5:
	movq	-8(%rbp), %rax
	addq	$32, %rsp
	popq	%rbp
	retq
	.cfi_endproc
                                        ## -- End function
	.p2align	4, 0x90                         ## -- Begin function _ZNSt3__1L20__throw_length_errorEPKc
__ZNSt3__1L20__throw_length_errorEPKc:  ## @_ZNSt3__1L20__throw_length_errorEPKc
Lfunc_begin6:
	.cfi_startproc
	.cfi_personality 155, ___gxx_personality_v0
	.cfi_lsda 16, Lexception6
## %bb.0:
	pushq	%rbp
	.cfi_def_cfa_offset 16
	.cfi_offset %rbp, -16
	movq	%rsp, %rbp
	.cfi_def_cfa_register %rbp
	subq	$32, %rsp
	movq	%rdi, -8(%rbp)
	movl	$16, %edi
	callq	___cxa_allocate_exception
	movq	%rax, %rdi
	movq	%rdi, %rax
	movq	%rax, -32(%rbp)                 ## 8-byte Spill
	movq	-8(%rbp), %rsi
Ltmp29:
	callq	__ZNSt12length_errorC1EPKc
Ltmp30:
	jmp	LBB85_1
LBB85_1:
	movq	-32(%rbp), %rdi                 ## 8-byte Reload
	movq	__ZTISt12length_error@GOTPCREL(%rip), %rsi
	movq	__ZNSt12length_errorD1Ev@GOTPCREL(%rip), %rdx
	callq	___cxa_throw
LBB85_2:
Ltmp31:
	movq	-32(%rbp), %rdi                 ## 8-byte Reload
	movq	%rax, %rcx
	movl	%edx, %eax
	movq	%rcx, -16(%rbp)
	movl	%eax, -20(%rbp)
	callq	___cxa_free_exception
## %bb.3:
	movq	-16(%rbp), %rdi
	callq	__Unwind_Resume
Lfunc_end6:
	.cfi_endproc
	.section	__TEXT,__gcc_except_tab
	.p2align	2
GCC_except_table85:
Lexception6:
	.byte	255                             ## @LPStart Encoding = omit
	.byte	255                             ## @TType Encoding = omit
	.byte	1                               ## Call site Encoding = uleb128
	.uleb128 Lcst_end6-Lcst_begin6
Lcst_begin6:
	.uleb128 Lfunc_begin6-Lfunc_begin6      ## >> Call Site 1 <<
	.uleb128 Ltmp29-Lfunc_begin6            ##   Call between Lfunc_begin6 and Ltmp29
	.byte	0                               ##     has no landing pad
	.byte	0                               ##   On action: cleanup
	.uleb128 Ltmp29-Lfunc_begin6            ## >> Call Site 2 <<
	.uleb128 Ltmp30-Ltmp29                  ##   Call between Ltmp29 and Ltmp30
	.uleb128 Ltmp31-Lfunc_begin6            ##     jumps to Ltmp31
	.byte	0                               ##   On action: cleanup
	.uleb128 Ltmp30-Lfunc_begin6            ## >> Call Site 3 <<
	.uleb128 Lfunc_end6-Ltmp30              ##   Call between Ltmp30 and Lfunc_end6
	.byte	0                               ##     has no landing pad
	.byte	0                               ##   On action: cleanup
Lcst_end6:
	.p2align	2
                                        ## -- End function
	.section	__TEXT,__text,regular,pure_instructions
	.p2align	4, 0x90                         ## -- Begin function _ZNSt3__1L17__libcpp_allocateEmm
__ZNSt3__1L17__libcpp_allocateEmm:      ## @_ZNSt3__1L17__libcpp_allocateEmm
	.cfi_startproc
## %bb.0:
	pushq	%rbp
	.cfi_def_cfa_offset 16
	.cfi_offset %rbp, -16
	movq	%rsp, %rbp
	.cfi_def_cfa_register %rbp
	subq	$16, %rsp
	movq	%rdi, -8(%rbp)
	movq	%rsi, -16(%rbp)
	movq	-8(%rbp), %rdi
	callq	__ZNSt3__1L21__libcpp_operator_newIJmEEEPvDpT_
	addq	$16, %rsp
	popq	%rbp
	retq
	.cfi_endproc
                                        ## -- End function
	.p2align	4, 0x90                         ## -- Begin function _ZNSt12length_errorC1EPKc
__ZNSt12length_errorC1EPKc:             ## @_ZNSt12length_errorC1EPKc
	.cfi_startproc
## %bb.0:
	pushq	%rbp
	.cfi_def_cfa_offset 16
	.cfi_offset %rbp, -16
	movq	%rsp, %rbp
	.cfi_def_cfa_register %rbp
	subq	$16, %rsp
	movq	%rdi, -8(%rbp)
	movq	%rsi, -16(%rbp)
	movq	-8(%rbp), %rdi
	movq	-16(%rbp), %rsi
	callq	__ZNSt12length_errorC2EPKc
	addq	$16, %rsp
	popq	%rbp
	retq
	.cfi_endproc
                                        ## -- End function
	.p2align	4, 0x90                         ## -- Begin function _ZNSt12length_errorC2EPKc
__ZNSt12length_errorC2EPKc:             ## @_ZNSt12length_errorC2EPKc
	.cfi_startproc
## %bb.0:
	pushq	%rbp
	.cfi_def_cfa_offset 16
	.cfi_offset %rbp, -16
	movq	%rsp, %rbp
	.cfi_def_cfa_register %rbp
	subq	$32, %rsp
	movq	%rdi, -8(%rbp)
	movq	%rsi, -16(%rbp)
	movq	-8(%rbp), %rdi
	movq	%rdi, -24(%rbp)                 ## 8-byte Spill
	movq	-16(%rbp), %rsi
	callq	__ZNSt11logic_errorC2EPKc
	movq	-24(%rbp), %rax                 ## 8-byte Reload
	movq	__ZTVSt12length_error@GOTPCREL(%rip), %rcx
	addq	$16, %rcx
	movq	%rcx, (%rax)
	addq	$32, %rsp
	popq	%rbp
	retq
	.cfi_endproc
                                        ## -- End function
	.p2align	4, 0x90                         ## -- Begin function _ZNSt3__1L21__libcpp_operator_newIJmEEEPvDpT_
__ZNSt3__1L21__libcpp_operator_newIJmEEEPvDpT_: ## @_ZNSt3__1L21__libcpp_operator_newIJmEEEPvDpT_
	.cfi_startproc
## %bb.0:
	pushq	%rbp
	.cfi_def_cfa_offset 16
	.cfi_offset %rbp, -16
	movq	%rsp, %rbp
	.cfi_def_cfa_register %rbp
	subq	$16, %rsp
	movq	%rdi, -8(%rbp)
	movq	-8(%rbp), %rdi
	callq	__Znwm
	addq	$16, %rsp
	popq	%rbp
	retq
	.cfi_endproc
                                        ## -- End function
	.p2align	4, 0x90                         ## -- Begin function _ZNSt3__117__compressed_pairIPiRNS_9allocatorIiEEE6secondEv
__ZNSt3__117__compressed_pairIPiRNS_9allocatorIiEEE6secondEv: ## @_ZNSt3__117__compressed_pairIPiRNS_9allocatorIiEEE6secondEv
	.cfi_startproc
## %bb.0:
	pushq	%rbp
	.cfi_def_cfa_offset 16
	.cfi_offset %rbp, -16
	movq	%rsp, %rbp
	.cfi_def_cfa_register %rbp
	subq	$16, %rsp
	movq	%rdi, -8(%rbp)
	movq	-8(%rbp), %rdi
	addq	$8, %rdi
	callq	__ZNSt3__122__compressed_pair_elemIRNS_9allocatorIiEELi1ELb0EE5__getEv
	addq	$16, %rsp
	popq	%rbp
	retq
	.cfi_endproc
                                        ## -- End function
	.p2align	4, 0x90                         ## -- Begin function _ZNSt3__122__compressed_pair_elemIRNS_9allocatorIiEELi1ELb0EE5__getEv
__ZNSt3__122__compressed_pair_elemIRNS_9allocatorIiEELi1ELb0EE5__getEv: ## @_ZNSt3__122__compressed_pair_elemIRNS_9allocatorIiEELi1ELb0EE5__getEv
	.cfi_startproc
## %bb.0:
	pushq	%rbp
	.cfi_def_cfa_offset 16
	.cfi_offset %rbp, -16
	movq	%rsp, %rbp
	.cfi_def_cfa_register %rbp
	movq	%rdi, -8(%rbp)
	movq	-8(%rbp), %rax
	movq	(%rax), %rax
	popq	%rbp
	retq
	.cfi_endproc
                                        ## -- End function
	.p2align	4, 0x90                         ## -- Begin function _ZNSt3__117__compressed_pairIPiRNS_9allocatorIiEEE5firstEv
__ZNSt3__117__compressed_pairIPiRNS_9allocatorIiEEE5firstEv: ## @_ZNSt3__117__compressed_pairIPiRNS_9allocatorIiEEE5firstEv
	.cfi_startproc
## %bb.0:
	pushq	%rbp
	.cfi_def_cfa_offset 16
	.cfi_offset %rbp, -16
	movq	%rsp, %rbp
	.cfi_def_cfa_register %rbp
	subq	$16, %rsp
	movq	%rdi, -8(%rbp)
	movq	-8(%rbp), %rdi
	callq	__ZNSt3__122__compressed_pair_elemIPiLi0ELb0EE5__getEv
	addq	$16, %rsp
	popq	%rbp
	retq
	.cfi_endproc
                                        ## -- End function
	.p2align	4, 0x90                         ## -- Begin function _ZNSt3__19allocatorIiE9constructIiJKiEEEvPT_DpOT0_
__ZNSt3__19allocatorIiE9constructIiJKiEEEvPT_DpOT0_: ## @_ZNSt3__19allocatorIiE9constructIiJKiEEEvPT_DpOT0_
	.cfi_startproc
## %bb.0:
	pushq	%rbp
	.cfi_def_cfa_offset 16
	.cfi_offset %rbp, -16
	movq	%rsp, %rbp
	.cfi_def_cfa_register %rbp
	subq	$32, %rsp
	movq	%rdi, -8(%rbp)
	movq	%rsi, -16(%rbp)
	movq	%rdx, -24(%rbp)
	movq	-16(%rbp), %rax
	movq	%rax, -32(%rbp)                 ## 8-byte Spill
	movq	-24(%rbp), %rdi
	callq	__ZNSt3__1L7forwardIKiEEOT_RNS_16remove_referenceIS2_E4typeE
	movq	%rax, %rcx
	movq	-32(%rbp), %rax                 ## 8-byte Reload
	movl	(%rcx), %ecx
	movl	%ecx, (%rax)
	addq	$32, %rsp
	popq	%rbp
	retq
	.cfi_endproc
                                        ## -- End function
	.p2align	4, 0x90                         ## -- Begin function _ZNSt3__1L46__construct_backward_with_exception_guaranteesINS_9allocatorIiEEivEEvRT_PT0_S6_RS6_
__ZNSt3__1L46__construct_backward_with_exception_guaranteesINS_9allocatorIiEEivEEvRT_PT0_S6_RS6_: ## @_ZNSt3__1L46__construct_backward_with_exception_guaranteesINS_9allocatorIiEEivEEvRT_PT0_S6_RS6_
	.cfi_startproc
## %bb.0:
	pushq	%rbp
	.cfi_def_cfa_offset 16
	.cfi_offset %rbp, -16
	movq	%rsp, %rbp
	.cfi_def_cfa_register %rbp
	subq	$48, %rsp
	movq	%rdi, -8(%rbp)
	movq	%rsi, -16(%rbp)
	movq	%rdx, -24(%rbp)
	movq	%rcx, -32(%rbp)
	movq	-24(%rbp), %rax
	movq	-16(%rbp), %rcx
	subq	%rcx, %rax
	sarq	$2, %rax
	movq	%rax, -40(%rbp)
	movq	-40(%rbp), %rsi
	movq	-32(%rbp), %rax
	movq	(%rax), %rcx
	xorl	%edx, %edx
                                        ## kill: def $rdx killed $edx
	subq	%rsi, %rdx
	shlq	$2, %rdx
	addq	%rdx, %rcx
	movq	%rcx, (%rax)
	cmpq	$0, -40(%rbp)
	jle	LBB94_2
## %bb.1:
	movq	-32(%rbp), %rax
	movq	(%rax), %rdi
	movq	-16(%rbp), %rsi
	movq	-40(%rbp), %rdx
	shlq	$2, %rdx
	callq	_memcpy
LBB94_2:
	addq	$48, %rsp
	popq	%rbp
	retq
	.cfi_endproc
                                        ## -- End function
	.p2align	4, 0x90                         ## -- Begin function _ZNSt3__1L4swapIPiEEvRT_S3_
__ZNSt3__1L4swapIPiEEvRT_S3_:           ## @_ZNSt3__1L4swapIPiEEvRT_S3_
	.cfi_startproc
## %bb.0:
	pushq	%rbp
	.cfi_def_cfa_offset 16
	.cfi_offset %rbp, -16
	movq	%rsp, %rbp
	.cfi_def_cfa_register %rbp
	subq	$32, %rsp
	movq	%rdi, -8(%rbp)
	movq	%rsi, -16(%rbp)
	movq	-8(%rbp), %rdi
	callq	__ZNSt3__1L4moveIRPiEEONS_16remove_referenceIT_E4typeEOS4_
	movq	(%rax), %rax
	movq	%rax, -24(%rbp)
	movq	-16(%rbp), %rdi
	callq	__ZNSt3__1L4moveIRPiEEONS_16remove_referenceIT_E4typeEOS4_
	movq	(%rax), %rcx
	movq	-8(%rbp), %rax
	movq	%rcx, (%rax)
	leaq	-24(%rbp), %rdi
	callq	__ZNSt3__1L4moveIRPiEEONS_16remove_referenceIT_E4typeEOS4_
	movq	(%rax), %rcx
	movq	-16(%rbp), %rax
	movq	%rcx, (%rax)
	addq	$32, %rsp
	popq	%rbp
	retq
	.cfi_endproc
                                        ## -- End function
	.p2align	4, 0x90                         ## -- Begin function _ZNKSt3__16vectorIiNS_9allocatorIiEEE14__annotate_newEm
__ZNKSt3__16vectorIiNS_9allocatorIiEEE14__annotate_newEm: ## @_ZNKSt3__16vectorIiNS_9allocatorIiEEE14__annotate_newEm
	.cfi_startproc
## %bb.0:
	pushq	%rbp
	.cfi_def_cfa_offset 16
	.cfi_offset %rbp, -16
	movq	%rsp, %rbp
	.cfi_def_cfa_register %rbp
	subq	$64, %rsp
	movq	%rdi, -8(%rbp)
	movq	%rsi, -16(%rbp)
	movq	-8(%rbp), %rdi
	movq	%rdi, -48(%rbp)                 ## 8-byte Spill
	callq	__ZNKSt3__16vectorIiNS_9allocatorIiEEE4dataEv
	movq	-48(%rbp), %rdi                 ## 8-byte Reload
	movq	%rax, -40(%rbp)                 ## 8-byte Spill
	callq	__ZNKSt3__16vectorIiNS_9allocatorIiEEE4dataEv
	movq	-48(%rbp), %rdi                 ## 8-byte Reload
	movq	%rax, -64(%rbp)                 ## 8-byte Spill
	callq	__ZNKSt3__16vectorIiNS_9allocatorIiEEE8capacityEv
	movq	-48(%rbp), %rdi                 ## 8-byte Reload
	movq	%rax, %rcx
	movq	-64(%rbp), %rax                 ## 8-byte Reload
	shlq	$2, %rcx
	addq	%rcx, %rax
	movq	%rax, -32(%rbp)                 ## 8-byte Spill
	callq	__ZNKSt3__16vectorIiNS_9allocatorIiEEE4dataEv
	movq	-48(%rbp), %rdi                 ## 8-byte Reload
	movq	%rax, -56(%rbp)                 ## 8-byte Spill
	callq	__ZNKSt3__16vectorIiNS_9allocatorIiEEE8capacityEv
	movq	-48(%rbp), %rdi                 ## 8-byte Reload
	movq	%rax, %rcx
	movq	-56(%rbp), %rax                 ## 8-byte Reload
	shlq	$2, %rcx
	addq	%rcx, %rax
	movq	%rax, -24(%rbp)                 ## 8-byte Spill
	callq	__ZNKSt3__16vectorIiNS_9allocatorIiEEE4dataEv
	movq	-48(%rbp), %rdi                 ## 8-byte Reload
	movq	-40(%rbp), %rsi                 ## 8-byte Reload
	movq	-32(%rbp), %rdx                 ## 8-byte Reload
	movq	-24(%rbp), %rcx                 ## 8-byte Reload
	movq	%rax, %r8
	movq	-16(%rbp), %rax
	shlq	$2, %rax
	addq	%rax, %r8
	callq	__ZNKSt3__16vectorIiNS_9allocatorIiEEE31__annotate_contiguous_containerEPKvS5_S5_S5_
	addq	$64, %rsp
	popq	%rbp
	retq
	.cfi_endproc
                                        ## -- End function
	.p2align	4, 0x90                         ## -- Begin function _ZNSt3__16vectorIiNS_9allocatorIiEEE26__invalidate_all_iteratorsEv
__ZNSt3__16vectorIiNS_9allocatorIiEEE26__invalidate_all_iteratorsEv: ## @_ZNSt3__16vectorIiNS_9allocatorIiEEE26__invalidate_all_iteratorsEv
	.cfi_startproc
## %bb.0:
	pushq	%rbp
	.cfi_def_cfa_offset 16
	.cfi_offset %rbp, -16
	movq	%rsp, %rbp
	.cfi_def_cfa_register %rbp
	movq	%rdi, -8(%rbp)
	popq	%rbp
	retq
	.cfi_endproc
                                        ## -- End function
	.p2align	4, 0x90                         ## -- Begin function _ZNSt3__1L4moveIRPiEEONS_16remove_referenceIT_E4typeEOS4_
__ZNSt3__1L4moveIRPiEEONS_16remove_referenceIT_E4typeEOS4_: ## @_ZNSt3__1L4moveIRPiEEONS_16remove_referenceIT_E4typeEOS4_
	.cfi_startproc
## %bb.0:
	pushq	%rbp
	.cfi_def_cfa_offset 16
	.cfi_offset %rbp, -16
	movq	%rsp, %rbp
	.cfi_def_cfa_register %rbp
	movq	%rdi, -8(%rbp)
	movq	-8(%rbp), %rax
	popq	%rbp
	retq
	.cfi_endproc
                                        ## -- End function
	.globl	__ZNSt3__114__split_bufferIiRNS_9allocatorIiEEED2Ev ## -- Begin function _ZNSt3__114__split_bufferIiRNS_9allocatorIiEEED2Ev
	.weak_def_can_be_hidden	__ZNSt3__114__split_bufferIiRNS_9allocatorIiEEED2Ev
	.p2align	4, 0x90
__ZNSt3__114__split_bufferIiRNS_9allocatorIiEEED2Ev: ## @_ZNSt3__114__split_bufferIiRNS_9allocatorIiEEED2Ev
	.cfi_startproc
## %bb.0:
	pushq	%rbp
	.cfi_def_cfa_offset 16
	.cfi_offset %rbp, -16
	movq	%rsp, %rbp
	.cfi_def_cfa_register %rbp
	subq	$32, %rsp
	movq	%rdi, -8(%rbp)
	movq	-8(%rbp), %rdi
	movq	%rdi, -16(%rbp)                 ## 8-byte Spill
	callq	__ZNSt3__114__split_bufferIiRNS_9allocatorIiEEE5clearEv
	movq	-16(%rbp), %rax                 ## 8-byte Reload
	cmpq	$0, (%rax)
	je	LBB99_2
## %bb.1:
	movq	-16(%rbp), %rdi                 ## 8-byte Reload
	callq	__ZNSt3__114__split_bufferIiRNS_9allocatorIiEEE7__allocEv
	movq	-16(%rbp), %rdi                 ## 8-byte Reload
	movq	%rax, -32(%rbp)                 ## 8-byte Spill
	movq	(%rdi), %rax
	movq	%rax, -24(%rbp)                 ## 8-byte Spill
	callq	__ZNKSt3__114__split_bufferIiRNS_9allocatorIiEEE8capacityEv
	movq	-32(%rbp), %rdi                 ## 8-byte Reload
	movq	-24(%rbp), %rsi                 ## 8-byte Reload
	movq	%rax, %rdx
	callq	__ZNSt3__116allocator_traitsINS_9allocatorIiEEE10deallocateERS2_Pim
LBB99_2:
	addq	$32, %rsp
	popq	%rbp
	retq
	.cfi_endproc
                                        ## -- End function
	.p2align	4, 0x90                         ## -- Begin function _ZNSt3__114__split_bufferIiRNS_9allocatorIiEEE5clearEv
__ZNSt3__114__split_bufferIiRNS_9allocatorIiEEE5clearEv: ## @_ZNSt3__114__split_bufferIiRNS_9allocatorIiEEE5clearEv
	.cfi_startproc
## %bb.0:
	pushq	%rbp
	.cfi_def_cfa_offset 16
	.cfi_offset %rbp, -16
	movq	%rsp, %rbp
	.cfi_def_cfa_register %rbp
	subq	$16, %rsp
	movq	%rdi, -8(%rbp)
	movq	-8(%rbp), %rdi
	movq	8(%rdi), %rsi
	callq	__ZNSt3__114__split_bufferIiRNS_9allocatorIiEEE17__destruct_at_endEPi
	addq	$16, %rsp
	popq	%rbp
	retq
	.cfi_endproc
                                        ## -- End function
	.p2align	4, 0x90                         ## -- Begin function _ZNKSt3__114__split_bufferIiRNS_9allocatorIiEEE8capacityEv
__ZNKSt3__114__split_bufferIiRNS_9allocatorIiEEE8capacityEv: ## @_ZNKSt3__114__split_bufferIiRNS_9allocatorIiEEE8capacityEv
	.cfi_startproc
## %bb.0:
	pushq	%rbp
	.cfi_def_cfa_offset 16
	.cfi_offset %rbp, -16
	movq	%rsp, %rbp
	.cfi_def_cfa_register %rbp
	subq	$16, %rsp
	movq	%rdi, -8(%rbp)
	movq	-8(%rbp), %rdi
	movq	%rdi, -16(%rbp)                 ## 8-byte Spill
	callq	__ZNKSt3__114__split_bufferIiRNS_9allocatorIiEEE9__end_capEv
	movq	-16(%rbp), %rcx                 ## 8-byte Reload
	movq	(%rax), %rax
	movq	(%rcx), %rcx
	subq	%rcx, %rax
	sarq	$2, %rax
	addq	$16, %rsp
	popq	%rbp
	retq
	.cfi_endproc
                                        ## -- End function
	.p2align	4, 0x90                         ## -- Begin function _ZNSt3__114__split_bufferIiRNS_9allocatorIiEEE17__destruct_at_endEPi
__ZNSt3__114__split_bufferIiRNS_9allocatorIiEEE17__destruct_at_endEPi: ## @_ZNSt3__114__split_bufferIiRNS_9allocatorIiEEE17__destruct_at_endEPi
	.cfi_startproc
## %bb.0:
	pushq	%rbp
	.cfi_def_cfa_offset 16
	.cfi_offset %rbp, -16
	movq	%rsp, %rbp
	.cfi_def_cfa_register %rbp
	subq	$32, %rsp
	movq	%rdi, -8(%rbp)
	movq	%rsi, -16(%rbp)
	movq	-8(%rbp), %rdi
	movq	-16(%rbp), %rsi
	callq	__ZNSt3__114__split_bufferIiRNS_9allocatorIiEEE17__destruct_at_endEPiNS_17integral_constantIbLb0EEE
	addq	$32, %rsp
	popq	%rbp
	retq
	.cfi_endproc
                                        ## -- End function
	.p2align	4, 0x90                         ## -- Begin function _ZNSt3__114__split_bufferIiRNS_9allocatorIiEEE17__destruct_at_endEPiNS_17integral_constantIbLb0EEE
__ZNSt3__114__split_bufferIiRNS_9allocatorIiEEE17__destruct_at_endEPiNS_17integral_constantIbLb0EEE: ## @_ZNSt3__114__split_bufferIiRNS_9allocatorIiEEE17__destruct_at_endEPiNS_17integral_constantIbLb0EEE
Lfunc_begin7:
	.cfi_startproc
	.cfi_personality 155, ___gxx_personality_v0
	.cfi_lsda 16, Lexception7
## %bb.0:
	pushq	%rbp
	.cfi_def_cfa_offset 16
	.cfi_offset %rbp, -16
	movq	%rsp, %rbp
	.cfi_def_cfa_register %rbp
	subq	$64, %rsp
	movq	%rdi, -16(%rbp)
	movq	%rsi, -24(%rbp)
	movq	-16(%rbp), %rax
	movq	%rax, -48(%rbp)                 ## 8-byte Spill
LBB103_1:                               ## =>This Inner Loop Header: Depth=1
	movq	-48(%rbp), %rcx                 ## 8-byte Reload
	movq	-24(%rbp), %rax
	cmpq	16(%rcx), %rax
	je	LBB103_6
## %bb.2:                               ##   in Loop: Header=BB103_1 Depth=1
	movq	-48(%rbp), %rdi                 ## 8-byte Reload
	callq	__ZNSt3__114__split_bufferIiRNS_9allocatorIiEEE7__allocEv
	movq	%rax, %rcx
	movq	-48(%rbp), %rax                 ## 8-byte Reload
	movq	%rcx, -56(%rbp)                 ## 8-byte Spill
	movq	16(%rax), %rdi
	addq	$-4, %rdi
	movq	%rdi, 16(%rax)
	callq	__ZNSt3__1L12__to_addressIiEEPT_S2_
	movq	-56(%rbp), %rdi                 ## 8-byte Reload
	movq	%rax, %rsi
Ltmp32:
	callq	__ZNSt3__116allocator_traitsINS_9allocatorIiEEE7destroyIivEEvRS2_PT_
Ltmp33:
	jmp	LBB103_3
LBB103_3:                               ##   in Loop: Header=BB103_1 Depth=1
	jmp	LBB103_1
LBB103_4:
Ltmp34:
	movq	%rax, %rcx
	movl	%edx, %eax
	movq	%rcx, -32(%rbp)
	movl	%eax, -36(%rbp)
## %bb.5:
	movq	-32(%rbp), %rdi
	callq	___cxa_call_unexpected
LBB103_6:
	addq	$64, %rsp
	popq	%rbp
	retq
Lfunc_end7:
	.cfi_endproc
	.section	__TEXT,__gcc_except_tab
	.p2align	2
GCC_except_table103:
Lexception7:
	.byte	255                             ## @LPStart Encoding = omit
	.byte	155                             ## @TType Encoding = indirect pcrel sdata4
	.uleb128 Lttbase6-Lttbaseref6
Lttbaseref6:
	.byte	1                               ## Call site Encoding = uleb128
	.uleb128 Lcst_end7-Lcst_begin7
Lcst_begin7:
	.uleb128 Ltmp32-Lfunc_begin7            ## >> Call Site 1 <<
	.uleb128 Ltmp33-Ltmp32                  ##   Call between Ltmp32 and Ltmp33
	.uleb128 Ltmp34-Lfunc_begin7            ##     jumps to Ltmp34
	.byte	1                               ##   On action: 1
	.uleb128 Ltmp33-Lfunc_begin7            ## >> Call Site 2 <<
	.uleb128 Lfunc_end7-Ltmp33              ##   Call between Ltmp33 and Lfunc_end7
	.byte	0                               ##     has no landing pad
	.byte	0                               ##   On action: cleanup
Lcst_end7:
	.byte	127                             ## >> Action Record 1 <<
                                        ##   Filter TypeInfo -1
	.byte	0                               ##   No further actions
	.p2align	2
Lttbase6:
                                        ## >> Filter TypeInfos <<
	.byte	0
	.p2align	2
                                        ## -- End function
	.section	__TEXT,__text,regular,pure_instructions
	.p2align	4, 0x90                         ## -- Begin function _ZNKSt3__114__split_bufferIiRNS_9allocatorIiEEE9__end_capEv
__ZNKSt3__114__split_bufferIiRNS_9allocatorIiEEE9__end_capEv: ## @_ZNKSt3__114__split_bufferIiRNS_9allocatorIiEEE9__end_capEv
	.cfi_startproc
## %bb.0:
	pushq	%rbp
	.cfi_def_cfa_offset 16
	.cfi_offset %rbp, -16
	movq	%rsp, %rbp
	.cfi_def_cfa_register %rbp
	subq	$16, %rsp
	movq	%rdi, -8(%rbp)
	movq	-8(%rbp), %rdi
	addq	$24, %rdi
	callq	__ZNKSt3__117__compressed_pairIPiRNS_9allocatorIiEEE5firstEv
	addq	$16, %rsp
	popq	%rbp
	retq
	.cfi_endproc
                                        ## -- End function
	.p2align	4, 0x90                         ## -- Begin function _ZNKSt3__117__compressed_pairIPiRNS_9allocatorIiEEE5firstEv
__ZNKSt3__117__compressed_pairIPiRNS_9allocatorIiEEE5firstEv: ## @_ZNKSt3__117__compressed_pairIPiRNS_9allocatorIiEEE5firstEv
	.cfi_startproc
## %bb.0:
	pushq	%rbp
	.cfi_def_cfa_offset 16
	.cfi_offset %rbp, -16
	movq	%rsp, %rbp
	.cfi_def_cfa_register %rbp
	subq	$16, %rsp
	movq	%rdi, -8(%rbp)
	movq	-8(%rbp), %rdi
	callq	__ZNKSt3__122__compressed_pair_elemIPiLi0ELb0EE5__getEv
	addq	$16, %rsp
	popq	%rbp
	retq
	.cfi_endproc
                                        ## -- End function
	.section	__TEXT,__cstring,cstring_literals
L_.str:                                 ## @.str
	.asciz	"allocator<T>::allocate(size_t n) 'n' exceeds maximum supported size"

.subsections_via_symbols
